(dp1
VA Ship Comes In
p2
(dp3
VNominated Best Sound Effects Editing
p4
I00
sVWon Best Music, Musical Picture
p5
I00
sVNominated Best Foreign Language Film
p6
I00
sVNominated Gordon E. Sawyer Award
p7
I00
sVWon Best Short Subject, Color
p8
I00
sVWon Best Short Film, Animated
p9
I00
sVNominated Best Short Subject, Novelty
p10
I00
sVNominated Best Makeup
p11
I00
sVNominated Best Writing
p12
I00
sVWon Best Picture
p13
I00
sVNominated Best Costume Design, Color
p14
I00
sVNominated Award of Commendation
p15
I00
sVWon Best Actress
p16
I00
sVNominated Medal of Commendation
p17
I00
sVWon Best Makeup
p18
I00
sVNominated Best Director, Drama
p19
I00
sVWon Best Costume Design
p20
I00
sVWon Best Writing, Adapted Screenplay
p21
I00
sVWon Best Writing
p22
I00
sVNominated Best Short Subject, Comedy
p23
I00
sVWon Best Costume Design, Color
p24
I00
sVNominated Best Visual Effects
p25
I00
sVWon Best Sound Effects Editing
p26
I00
sVWon Best Costume Design, Black-and-White
p27
I00
sVNominated Best Supporting Actor
p28
I00
sVWon Best Art Direction, Color
p29
I00
sVNominated Best Documentary, Short Subject
p30
I00
sVNominated Special Achievement Award
p31
I00
sVWon Medal of Commendation
p32
I00
sVWon Best Art Direction, Black-and-White
p33
I00
sVWon Jean Hersholt Humanitarian Award
p34
I00
sVWon Best Animated Feature Film
p35
I00
sVWon Best Supporting Actor
p36
I00
sVWon Best Special Visual Effects
p37
I00
sVWon Best Short Subject, One-reel
p38
I00
sVNominated Best Film Editing
p39
I00
sVWon Best Sound Effects
p40
I00
sVNominated Best Writing, Original Story
p41
I00
sVNominated Best Cinematography, Black-and-White
p42
I00
sS'movieIDs'
p43
(lp44
S'0018389'
p45
asVWon Best Short Subject, Two-reel
p46
I00
sS'year'
p47
S'1927-1928'
p48
sVWon Honorary Award
p49
I00
sVWon Best Short Subject, Comedy
p50
I00
sVWon Best Director, Comedy
p51
I00
sVNominated Best Sound Recording
p52
I00
sVNominated Best Cinematography
p53
I00
sVWon Best Documentary, Feature
p54
I00
sVNominated Best Short Film, Live Action
p55
I00
sVWon Best Director
p56
I00
sS'won'
p57
(lp58
sS'nominees'
p59
(lp60
VLouise Dresser
p61
asVWon Best Music, Original Score
p62
I00
sVWon Gordon E. Sawyer Award
p63
I00
sVWon Best Short Subject, Cartoon
p64
I00
sVWon Best Short Subject, Live Action
p65
I00
sVWon Best Music, Dramatic Picture
p66
I00
sVWon Best Documentary, Short Subject
p67
I00
sVNominated Best Music, Song
p68
I00
sVNominated Best Short Subject, One-reel
p69
I00
sVWon Best Cinematography, Black-and-White
p70
I00
sVWon Best Writing, Original Story
p71
I00
sVNominated Best Supporting Actress
p72
I00
sVNominated Best Special Visual Effects
p73
I00
sVWon Best Music, Scoring
p74
I00
sVWon Best Sound Mixing
p75
I00
sVWon Award of Commendation
p76
I00
sVNominated Best Music, Scoring
p77
I00
sVNominated Best Picture
p78
I00
sVNominated Best Sound Mixing
p79
I00
sVWon Best Music, Dramatic Score
p80
I00
sVWon Best Music, Adaptation / Original Song Score
p81
I00
sVNominated Best Writing, Original Screenplay
p82
I00
sVWon Best Writing, Title Writing
p83
I00
sVWon Best Assistant Director
p84
I00
sVNominated Best Sound Editing
p85
I00
sVNominated Best Art Direction, Color
p86
I00
sVNominated Best Assistant Director
p87
I00
sVWon Best Sound Editing
p88
I00
sVNominated Best Documentary
p89
I00
sVWon Irving G. Thalberg Memorial Award
p90
I00
sVNominated Best Dance Direction
p91
I00
sVWon Best Unique and Artistic Picture
p92
I00
sVNominated Best Short Subject, Color
p93
I00
sVWon Best Short Subject, Novelty
p94
I00
sVWon Best Music, Musical or Comedy Score
p95
I00
sVNominated Best Short Subject, Two-reel
p96
I00
sVNominated Best Art Direction, Black-and-White
p97
I00
sVNominated Special Award
p98
I00
sVNominated Best Music, Dramatic or Comedy Picture
p99
I00
sVWon Best Dance Direction
p100
I00
sVNominated Best Short Film, Animated
p101
I00
sVNominated Best Animated Feature Film
p102
I00
sVWon Best Sound Recording
p103
I00
sVWon Best Short Subject, Animated
p104
I00
sVNominated Best Writing, Title Writing
p105
I00
sVNominated Best Music, Original Score
p106
I00
sVWon Special Achievement Award
p107
I00
sVNominated Best Director, Comedy
p108
I00
sVNominated Best Costume Design, Black-and-White
p109
I00
sVNominated Best Music, Dramatic Picture
p110
I00
sVWon Best Visual Effects
p111
I00
sS'titles'
p112
(lp113
ccopy_reg
_reconstructor
p114
(cimdb.Movie
Movie
p115
c__builtin__
object
p116
NtRp117
(dp118
S'_roleIsPerson'
p119
I00
sS'_roleClass'
p120
cimdb.Character
Character
p121
sS'movieID'
p122
g45
sS'infoset2keys'
p123
(dp124
sS'current_info'
p125
(lp126
sS'keys_tomodify'
p127
(dp128
S'crazy credits'
p129
NsS'plot'
p130
NsS'business'
p131
NsS'dvd'
p132
NsS'video review'
p133
NsS'alternate versions'
p134
NsS'soundtrack'
p135
NsS'quotes'
p136
NsS'supplements'
p137
NsS'goofs'
p138
NsS'news'
p139
NsS'trivia'
p140
NsS'faqs'
p141
NsS'laserdisc'
p142
NssS'notes'
p143
V
sS'key2infoset'
p144
(dp145
sS'myTitle'
p146
V
sS'charactersRefs'
p147
(dp148
sS'accessSystem'
p149
S'http'
p150
sS'namesRefs'
p151
(dp152
sS'myID'
p153
NsS'_Container__role'
p154
NsS'titlesRefs'
p155
(dp156
sS'data'
p157
(dp158
S'kind'
p159
Vmovie
p160
sS'title'
p161
VA Ship Comes In
p162
sg47
I1928
ssS'modFunct'
p163
cimdb.utils
modClearRefs
p164
sbasS'nominations'
p165
(lp166
VBest Actress
p167
asVWon Best Special Effects
p168
I00
sVWon Best Music, Song
p169
I00
sVNominated Best Director
p170
I00
sVWon Best Supporting Actress
p171
I00
sVNominated Best Sound Effects
p172
I00
sVWon Best Actor
p173
I00
sVNominated Best Documentary, Feature
p174
I00
sVNominated Best Short Subject, Animated
p175
I00
sVNominated Best Engineering Effects
p176
I00
sVNominated Best Special Effects
p177
I00
sVWon Best Art Direction
p178
I00
sVWon Best Director, Drama
p179
I00
sVNominated Best Costume Design
p180
I00
sVWon Best Writing, Original Screenplay
p181
I00
sVNominated Best Music, Adaptation / Original Song Score
p182
I00
sVNominated Best Unique and Artistic Picture
p183
I00
sVWon Best Foreign Language Film
p184
I00
sVNominated Best Sound
p185
I00
sVNominated Best Cinematography, Color
p186
I00
sVWon Best Cinematography, Color
p187
I00
sVWon Best Short Film, Live Action
p188
I00
sVWon Best Music, Dramatic or Comedy Picture
p189
I00
sVNominated Best Music, Dramatic Score
p190
I00
sVNominated Best Music, Musical or Comedy Score
p191
I00
sVWon Best Film Editing
p192
I00
sVNominated Best Music, Musical Picture
p193
I00
sVNominated Irving G. Thalberg Memorial Award
p194
I00
sVNominated Best Art Direction
p195
I00
sVNominated Honorary Award
p196
I00
sVNominated Best Short Subject, Cartoon
p197
I00
sS'titleyr'
p198
VA Ship Comes In (1927)
p199
sVWon Best Engineering Effects
p200
I00
sVNominated Best Actor
p201
I00
sVWon Best Cinematography
p202
I00
sVNominated Best Actress
p203
I01
sVNominated Best Writing, Adapted Screenplay
p204
I00
sVWon Best Sound
p205
I00
sVNominated Best Short Subject, Live Action
p206
I00
sVNominated Jean Hersholt Humanitarian Award
p207
I00
sVWon Best Documentary
p208
I00
sVWon Special Award
p209
I00
ssVThe Crowd
p210
(dp211
VNominated Best Sound Effects Editing
p212
I00
sVWon Best Music, Musical Picture
p213
I00
sVNominated Best Foreign Language Film
p214
I00
sVNominated Gordon E. Sawyer Award
p215
I00
sVWon Best Short Subject, Color
p216
I00
sVWon Best Short Film, Animated
p217
I00
sVNominated Best Short Subject, Novelty
p218
I00
sVNominated Best Makeup
p219
I00
sVNominated Best Writing
p220
I00
sVWon Best Picture
p221
I00
sVNominated Best Costume Design, Color
p222
I00
sVNominated Award of Commendation
p223
I00
sVWon Best Actress
p224
I00
sVNominated Medal of Commendation
p225
I00
sVWon Best Makeup
p226
I00
sVNominated Best Director, Drama
p227
I00
sVWon Best Costume Design
p228
I00
sVWon Best Writing, Adapted Screenplay
p229
I00
sVWon Best Writing
p230
I00
sVNominated Best Short Subject, Comedy
p231
I00
sVWon Best Costume Design, Color
p232
I00
sVNominated Best Visual Effects
p233
I00
sVWon Best Sound Effects Editing
p234
I00
sVWon Best Costume Design, Black-and-White
p235
I00
sVNominated Best Supporting Actor
p236
I00
sVWon Best Art Direction, Color
p237
I00
sVNominated Best Documentary, Short Subject
p238
I00
sVNominated Special Achievement Award
p239
I00
sVWon Medal of Commendation
p240
I00
sVWon Best Art Direction, Black-and-White
p241
I00
sVWon Jean Hersholt Humanitarian Award
p242
I00
sVWon Best Animated Feature Film
p243
I00
sVWon Best Supporting Actor
p244
I00
sVWon Best Special Visual Effects
p245
I00
sVWon Best Short Subject, One-reel
p246
I00
sVNominated Best Film Editing
p247
I00
sVWon Best Sound Effects
p248
I00
sVNominated Best Writing, Original Story
p249
I00
sVNominated Best Cinematography, Black-and-White
p250
I00
sg43
(lp251
S'0018484'
p252
aS'1013550'
p253
asVWon Best Short Subject, Two-reel
p254
I00
sg47
S'1927-1928'
p255
sVWon Honorary Award
p256
I00
sVWon Best Short Subject, Comedy
p257
I00
sVWon Best Director, Comedy
p258
I00
sVNominated Best Sound Recording
p259
I00
sVNominated Best Cinematography
p260
I00
sVWon Best Documentary, Feature
p261
I00
sVNominated Best Short Film, Live Action
p262
I00
sVWon Best Director
p263
I00
sg57
(lp264
sg59
(lp265
VMetro-Goldwyn-Mayer
p266
asVWon Best Music, Original Score
p267
I00
sVWon Gordon E. Sawyer Award
p268
I00
sVWon Best Short Subject, Cartoon
p269
I00
sVWon Best Short Subject, Live Action
p270
I00
sVWon Best Music, Dramatic Picture
p271
I00
sVWon Best Documentary, Short Subject
p272
I00
sVNominated Best Music, Song
p273
I00
sVNominated Best Short Subject, One-reel
p274
I00
sVWon Best Cinematography, Black-and-White
p275
I00
sVWon Best Writing, Original Story
p276
I00
sVNominated Best Supporting Actress
p277
I00
sVNominated Best Special Visual Effects
p278
I00
sVWon Best Music, Scoring
p279
I00
sVWon Best Sound Mixing
p280
I00
sVWon Award of Commendation
p281
I00
sVNominated Best Music, Scoring
p282
I00
sVNominated Best Picture
p283
I00
sVNominated Best Sound Mixing
p284
I00
sVWon Best Music, Dramatic Score
p285
I00
sVWon Best Music, Adaptation / Original Song Score
p286
I00
sVNominated Best Writing, Original Screenplay
p287
I00
sVWon Best Writing, Title Writing
p288
I00
sVWon Best Assistant Director
p289
I00
sVNominated Best Sound Editing
p290
I00
sVNominated Best Art Direction, Color
p291
I00
sVNominated Best Assistant Director
p292
I00
sVWon Best Sound Editing
p293
I00
sVNominated Best Documentary
p294
I00
sVWon Irving G. Thalberg Memorial Award
p295
I00
sVNominated Best Dance Direction
p296
I00
sVWon Best Unique and Artistic Picture
p297
I00
sVNominated Best Short Subject, Color
p298
I00
sVWon Best Short Subject, Novelty
p299
I00
sVWon Best Music, Musical or Comedy Score
p300
I00
sVNominated Best Short Subject, Two-reel
p301
I00
sVNominated Best Art Direction, Black-and-White
p302
I00
sVNominated Special Award
p303
I00
sVNominated Best Music, Dramatic or Comedy Picture
p304
I00
sVWon Best Dance Direction
p305
I00
sVNominated Best Short Film, Animated
p306
I00
sVNominated Best Animated Feature Film
p307
I00
sVWon Best Sound Recording
p308
I00
sVWon Best Short Subject, Animated
p309
I00
sVNominated Best Writing, Title Writing
p310
I00
sVNominated Best Music, Original Score
p311
I00
sVWon Special Achievement Award
p312
I00
sVNominated Best Director, Comedy
p313
I00
sVNominated Best Costume Design, Black-and-White
p314
I00
sVNominated Best Music, Dramatic Picture
p315
I00
sVWon Best Visual Effects
p316
I00
sg112
(lp317
g114
(g115
g116
NtRp318
(dp319
g119
I00
sg120
g121
sg122
g252
sg123
(dp320
sg125
(lp321
sg127
(dp322
g129
Nsg130
Nsg131
Nsg132
Nsg133
Nsg134
Nsg135
Nsg136
Nsg137
Nsg138
Nsg139
Nsg140
Nsg141
Nsg142
Nssg143
V
sg144
(dp323
sg146
V
sg147
(dp324
sg149
g150
sg151
(dp325
sg153
Nsg154
Nsg155
(dp326
sg157
(dp327
g159
g160
sg161
VThree's a Crowd
p328
sg47
I1927
ssg163
g164
sbag114
(g115
g116
NtRp329
(dp330
g119
I00
sg120
g121
sg122
g253
sg123
(dp331
sg125
(lp332
sg127
(dp333
g129
Nsg130
Nsg131
Nsg132
Nsg133
Nsg134
Nsg135
Nsg136
Nsg137
Nsg138
Nsg139
Nsg140
Nsg141
Nsg142
Nssg143
V
sg144
(dp334
sg146
V
sg147
(dp335
sg149
g150
sg151
(dp336
sg153
Nsg154
Nsg155
(dp337
sg157
(dp338
g159
g160
sg161
VCrowd Bait
p339
sg47
I1927
ssg163
g164
sbasg165
(lp340
VBest Unique and Artistic Picture
p341
asVWon Best Special Effects
p342
I00
sVWon Best Music, Song
p343
I00
sVNominated Best Director
p344
I00
sVWon Best Supporting Actress
p345
I00
sVNominated Best Sound Effects
p346
I00
sVWon Best Actor
p347
I00
sVNominated Best Documentary, Feature
p348
I00
sVNominated Best Short Subject, Animated
p349
I00
sVNominated Best Engineering Effects
p350
I00
sVNominated Best Special Effects
p351
I00
sVWon Best Art Direction
p352
I00
sVWon Best Director, Drama
p353
I00
sVNominated Best Costume Design
p354
I00
sVWon Best Writing, Original Screenplay
p355
I00
sVNominated Best Music, Adaptation / Original Song Score
p356
I00
sVNominated Best Unique and Artistic Picture
p357
I01
sVWon Best Foreign Language Film
p358
I00
sVNominated Best Sound
p359
I00
sVNominated Best Cinematography, Color
p360
I00
sVWon Best Cinematography, Color
p361
I00
sVWon Best Short Film, Live Action
p362
I00
sVWon Best Music, Dramatic or Comedy Picture
p363
I00
sVNominated Best Music, Dramatic Score
p364
I00
sVNominated Best Music, Musical or Comedy Score
p365
I00
sVWon Best Film Editing
p366
I00
sVNominated Best Music, Musical Picture
p367
I00
sVNominated Irving G. Thalberg Memorial Award
p368
I00
sVNominated Best Art Direction
p369
I00
sVNominated Honorary Award
p370
I00
sVNominated Best Short Subject, Cartoon
p371
I00
sg198
VThe Crowd (1927)
p372
sVWon Best Engineering Effects
p373
I00
sVNominated Best Actor
p374
I00
sVWon Best Cinematography
p375
I00
sVNominated Best Actress
p376
I00
sVNominated Best Writing, Adapted Screenplay
p377
I00
sVWon Best Sound
p378
I00
sVNominated Best Short Subject, Live Action
p379
I00
sVNominated Jean Hersholt Humanitarian Award
p380
I00
sVWon Best Documentary
p381
I00
sVWon Special Award
p382
I00
ssVThe Patent Leather Kid
p383
(dp384
VNominated Best Sound Effects Editing
p385
I00
sVWon Best Music, Musical Picture
p386
I00
sVNominated Best Foreign Language Film
p387
I00
sVNominated Gordon E. Sawyer Award
p388
I00
sVWon Best Short Subject, Color
p389
I00
sVWon Best Short Film, Animated
p390
I00
sVNominated Best Short Subject, Novelty
p391
I00
sVNominated Best Makeup
p392
I00
sVNominated Best Writing
p393
I00
sVWon Best Picture
p394
I00
sVNominated Best Costume Design, Color
p395
I00
sVNominated Award of Commendation
p396
I00
sVWon Best Actress
p397
I00
sVNominated Medal of Commendation
p398
I00
sVWon Best Makeup
p399
I00
sVNominated Best Director, Drama
p400
I00
sVWon Best Costume Design
p401
I00
sVWon Best Writing, Adapted Screenplay
p402
I00
sVWon Best Writing
p403
I00
sVNominated Best Short Subject, Comedy
p404
I00
sVWon Best Costume Design, Color
p405
I00
sVNominated Best Visual Effects
p406
I00
sVWon Best Sound Effects Editing
p407
I00
sVWon Best Costume Design, Black-and-White
p408
I00
sVNominated Best Supporting Actor
p409
I00
sVWon Best Art Direction, Color
p410
I00
sVNominated Best Documentary, Short Subject
p411
I00
sVNominated Special Achievement Award
p412
I00
sVWon Medal of Commendation
p413
I00
sVWon Best Art Direction, Black-and-White
p414
I00
sVWon Jean Hersholt Humanitarian Award
p415
I00
sVWon Best Animated Feature Film
p416
I00
sVWon Best Supporting Actor
p417
I00
sVWon Best Special Visual Effects
p418
I00
sVWon Best Short Subject, One-reel
p419
I00
sVNominated Best Film Editing
p420
I00
sVWon Best Sound Effects
p421
I00
sVNominated Best Writing, Original Story
p422
I00
sVNominated Best Cinematography, Black-and-White
p423
I00
sg43
(lp424
S'0018253'
p425
asVWon Best Short Subject, Two-reel
p426
I00
sg47
S'1927-1928'
p427
sVWon Honorary Award
p428
I00
sVWon Best Short Subject, Comedy
p429
I00
sVWon Best Director, Comedy
p430
I00
sVNominated Best Sound Recording
p431
I00
sVNominated Best Cinematography
p432
I00
sVWon Best Documentary, Feature
p433
I00
sVNominated Best Short Film, Live Action
p434
I00
sVWon Best Director
p435
I00
sg57
(lp436
sg59
(lp437
VRichard Barthelmess
p438
asVWon Best Music, Original Score
p439
I00
sVWon Gordon E. Sawyer Award
p440
I00
sVWon Best Short Subject, Cartoon
p441
I00
sVWon Best Short Subject, Live Action
p442
I00
sVWon Best Music, Dramatic Picture
p443
I00
sVWon Best Documentary, Short Subject
p444
I00
sVNominated Best Music, Song
p445
I00
sVNominated Best Short Subject, One-reel
p446
I00
sVWon Best Cinematography, Black-and-White
p447
I00
sVWon Best Writing, Original Story
p448
I00
sVNominated Best Supporting Actress
p449
I00
sVNominated Best Special Visual Effects
p450
I00
sVWon Best Music, Scoring
p451
I00
sVWon Best Sound Mixing
p452
I00
sVWon Award of Commendation
p453
I00
sVNominated Best Music, Scoring
p454
I00
sVNominated Best Picture
p455
I00
sVNominated Best Sound Mixing
p456
I00
sVWon Best Music, Dramatic Score
p457
I00
sVWon Best Music, Adaptation / Original Song Score
p458
I00
sVNominated Best Writing, Original Screenplay
p459
I00
sVWon Best Writing, Title Writing
p460
I00
sVWon Best Assistant Director
p461
I00
sVNominated Best Sound Editing
p462
I00
sVNominated Best Art Direction, Color
p463
I00
sVNominated Best Assistant Director
p464
I00
sVWon Best Sound Editing
p465
I00
sVNominated Best Documentary
p466
I00
sVWon Irving G. Thalberg Memorial Award
p467
I00
sVNominated Best Dance Direction
p468
I00
sVWon Best Unique and Artistic Picture
p469
I00
sVNominated Best Short Subject, Color
p470
I00
sVWon Best Short Subject, Novelty
p471
I00
sVWon Best Music, Musical or Comedy Score
p472
I00
sVNominated Best Short Subject, Two-reel
p473
I00
sVNominated Best Art Direction, Black-and-White
p474
I00
sVNominated Special Award
p475
I00
sVNominated Best Music, Dramatic or Comedy Picture
p476
I00
sVWon Best Dance Direction
p477
I00
sVNominated Best Short Film, Animated
p478
I00
sVNominated Best Animated Feature Film
p479
I00
sVWon Best Sound Recording
p480
I00
sVWon Best Short Subject, Animated
p481
I00
sVNominated Best Writing, Title Writing
p482
I00
sVNominated Best Music, Original Score
p483
I00
sVWon Special Achievement Award
p484
I00
sVNominated Best Director, Comedy
p485
I00
sVNominated Best Costume Design, Black-and-White
p486
I00
sVNominated Best Music, Dramatic Picture
p487
I00
sVWon Best Visual Effects
p488
I00
sg112
(lp489
g114
(g115
g116
NtRp490
(dp491
g119
I00
sg120
g121
sg122
g425
sg123
(dp492
sg125
(lp493
sg127
(dp494
g129
Nsg130
Nsg131
Nsg132
Nsg133
Nsg134
Nsg135
Nsg136
Nsg137
Nsg138
Nsg139
Nsg140
Nsg141
Nsg142
Nssg143
V
sg144
(dp495
sg146
V
sg147
(dp496
sg149
g150
sg151
(dp497
sg153
Nsg154
Nsg155
(dp498
sg157
(dp499
g159
g160
sg161
VThe Patent Leather Kid
p500
sg47
I1927
ssg163
g164
sbasg165
(lp501
VBest Actor
p502
asVWon Best Special Effects
p503
I00
sVWon Best Music, Song
p504
I00
sVNominated Best Director
p505
I00
sVWon Best Supporting Actress
p506
I00
sVNominated Best Sound Effects
p507
I00
sVWon Best Actor
p508
I00
sVNominated Best Documentary, Feature
p509
I00
sVNominated Best Short Subject, Animated
p510
I00
sVNominated Best Engineering Effects
p511
I00
sVNominated Best Special Effects
p512
I00
sVWon Best Art Direction
p513
I00
sVWon Best Director, Drama
p514
I00
sVNominated Best Costume Design
p515
I00
sVWon Best Writing, Original Screenplay
p516
I00
sVNominated Best Music, Adaptation / Original Song Score
p517
I00
sVNominated Best Unique and Artistic Picture
p518
I00
sVWon Best Foreign Language Film
p519
I00
sVNominated Best Sound
p520
I00
sVNominated Best Cinematography, Color
p521
I00
sVWon Best Cinematography, Color
p522
I00
sVWon Best Short Film, Live Action
p523
I00
sVWon Best Music, Dramatic or Comedy Picture
p524
I00
sVNominated Best Music, Dramatic Score
p525
I00
sVNominated Best Music, Musical or Comedy Score
p526
I00
sVWon Best Film Editing
p527
I00
sVNominated Best Music, Musical Picture
p528
I00
sVNominated Irving G. Thalberg Memorial Award
p529
I00
sVNominated Best Art Direction
p530
I00
sVNominated Honorary Award
p531
I00
sVNominated Best Short Subject, Cartoon
p532
I00
sg198
VThe Patent Leather Kid (1927)
p533
sVWon Best Engineering Effects
p534
I00
sVNominated Best Actor
p535
I01
sVWon Best Cinematography
p536
I00
sVNominated Best Actress
p537
I00
sVNominated Best Writing, Adapted Screenplay
p538
I00
sVWon Best Sound
p539
I00
sVNominated Best Short Subject, Live Action
p540
I00
sVNominated Jean Hersholt Humanitarian Award
p541
I00
sVWon Best Documentary
p542
I00
sVWon Special Award
p543
I00
ssVChang: A Drama of the Wilderness
p544
(dp545
VNominated Best Sound Effects Editing
p546
I00
sVWon Best Music, Musical Picture
p547
I00
sVNominated Best Foreign Language Film
p548
I00
sVNominated Gordon E. Sawyer Award
p549
I00
sVWon Best Short Subject, Color
p550
I00
sVWon Best Short Film, Animated
p551
I00
sVNominated Best Short Subject, Novelty
p552
I00
sVNominated Best Makeup
p553
I00
sVNominated Best Writing
p554
I00
sVWon Best Picture
p555
I00
sVNominated Best Costume Design, Color
p556
I00
sVNominated Award of Commendation
p557
I00
sVWon Best Actress
p558
I00
sVNominated Medal of Commendation
p559
I00
sVWon Best Makeup
p560
I00
sVNominated Best Director, Drama
p561
I00
sVWon Best Costume Design
p562
I00
sVWon Best Writing, Adapted Screenplay
p563
I00
sVWon Best Writing
p564
I00
sVNominated Best Short Subject, Comedy
p565
I00
sVWon Best Costume Design, Color
p566
I00
sVNominated Best Visual Effects
p567
I00
sVWon Best Sound Effects Editing
p568
I00
sVWon Best Costume Design, Black-and-White
p569
I00
sVNominated Best Supporting Actor
p570
I00
sVWon Best Art Direction, Color
p571
I00
sVNominated Best Documentary, Short Subject
p572
I00
sVNominated Special Achievement Award
p573
I00
sVWon Medal of Commendation
p574
I00
sVWon Best Art Direction, Black-and-White
p575
I00
sVWon Jean Hersholt Humanitarian Award
p576
I00
sVWon Best Animated Feature Film
p577
I00
sVWon Best Supporting Actor
p578
I00
sVWon Best Special Visual Effects
p579
I00
sVWon Best Short Subject, One-reel
p580
I00
sVNominated Best Film Editing
p581
I00
sVWon Best Sound Effects
p582
I00
sVNominated Best Writing, Original Story
p583
I00
sVNominated Best Cinematography, Black-and-White
p584
I00
sg43
(lp585
S'0017743'
p586
asVWon Best Short Subject, Two-reel
p587
I00
sg47
S'1927-1928'
p588
sVWon Honorary Award
p589
I00
sVWon Best Short Subject, Comedy
p590
I00
sVWon Best Director, Comedy
p591
I00
sVNominated Best Sound Recording
p592
I00
sVNominated Best Cinematography
p593
I00
sVWon Best Documentary, Feature
p594
I00
sVNominated Best Short Film, Live Action
p595
I00
sVWon Best Director
p596
I00
sg57
(lp597
sg59
(lp598
VParamount Famous Lasky
p599
asVWon Best Music, Original Score
p600
I00
sVWon Gordon E. Sawyer Award
p601
I00
sVWon Best Short Subject, Cartoon
p602
I00
sVWon Best Short Subject, Live Action
p603
I00
sVWon Best Music, Dramatic Picture
p604
I00
sVWon Best Documentary, Short Subject
p605
I00
sVNominated Best Music, Song
p606
I00
sVNominated Best Short Subject, One-reel
p607
I00
sVWon Best Cinematography, Black-and-White
p608
I00
sVWon Best Writing, Original Story
p609
I00
sVNominated Best Supporting Actress
p610
I00
sVNominated Best Special Visual Effects
p611
I00
sVWon Best Music, Scoring
p612
I00
sVWon Best Sound Mixing
p613
I00
sVWon Award of Commendation
p614
I00
sVNominated Best Music, Scoring
p615
I00
sVNominated Best Picture
p616
I00
sVNominated Best Sound Mixing
p617
I00
sVWon Best Music, Dramatic Score
p618
I00
sVWon Best Music, Adaptation / Original Song Score
p619
I00
sVNominated Best Writing, Original Screenplay
p620
I00
sVWon Best Writing, Title Writing
p621
I00
sVWon Best Assistant Director
p622
I00
sVNominated Best Sound Editing
p623
I00
sVNominated Best Art Direction, Color
p624
I00
sVNominated Best Assistant Director
p625
I00
sVWon Best Sound Editing
p626
I00
sVNominated Best Documentary
p627
I00
sVWon Irving G. Thalberg Memorial Award
p628
I00
sVNominated Best Dance Direction
p629
I00
sVWon Best Unique and Artistic Picture
p630
I00
sVNominated Best Short Subject, Color
p631
I00
sVWon Best Short Subject, Novelty
p632
I00
sVWon Best Music, Musical or Comedy Score
p633
I00
sVNominated Best Short Subject, Two-reel
p634
I00
sVNominated Best Art Direction, Black-and-White
p635
I00
sVNominated Special Award
p636
I00
sVNominated Best Music, Dramatic or Comedy Picture
p637
I00
sVWon Best Dance Direction
p638
I00
sVNominated Best Short Film, Animated
p639
I00
sVNominated Best Animated Feature Film
p640
I00
sVWon Best Sound Recording
p641
I00
sVWon Best Short Subject, Animated
p642
I00
sVNominated Best Writing, Title Writing
p643
I00
sVNominated Best Music, Original Score
p644
I00
sVWon Special Achievement Award
p645
I00
sVNominated Best Director, Comedy
p646
I00
sVNominated Best Costume Design, Black-and-White
p647
I00
sVNominated Best Music, Dramatic Picture
p648
I00
sVWon Best Visual Effects
p649
I00
sg112
(lp650
g114
(g115
g116
NtRp651
(dp652
g119
I00
sg120
g121
sg122
g586
sg123
(dp653
sg125
(lp654
sg127
(dp655
g129
Nsg130
Nsg131
Nsg132
Nsg133
Nsg134
Nsg135
Nsg136
Nsg137
Nsg138
Nsg139
Nsg140
Nsg141
Nsg142
Nssg143
V
sg144
(dp656
sg146
V
sg147
(dp657
sg149
g150
sg151
(dp658
sg153
Nsg154
Nsg155
(dp659
sg157
(dp660
g159
g160
sg161
VChang: A Drama of the Wilderness
p661
sg47
I1927
ssg163
g164
sbasg165
(lp662
g341
asVWon Best Special Effects
p663
I00
sVWon Best Music, Song
p664
I00
sVNominated Best Director
p665
I00
sVWon Best Supporting Actress
p666
I00
sVNominated Best Sound Effects
p667
I00
sVWon Best Actor
p668
I00
sVNominated Best Documentary, Feature
p669
I00
sVNominated Best Short Subject, Animated
p670
I00
sVNominated Best Engineering Effects
p671
I00
sVNominated Best Special Effects
p672
I00
sVWon Best Art Direction
p673
I00
sVWon Best Director, Drama
p674
I00
sVNominated Best Costume Design
p675
I00
sVWon Best Writing, Original Screenplay
p676
I00
sVNominated Best Music, Adaptation / Original Song Score
p677
I00
sVNominated Best Unique and Artistic Picture
p678
I01
sVWon Best Foreign Language Film
p679
I00
sVNominated Best Sound
p680
I00
sVNominated Best Cinematography, Color
p681
I00
sVWon Best Cinematography, Color
p682
I00
sVWon Best Short Film, Live Action
p683
I00
sVWon Best Music, Dramatic or Comedy Picture
p684
I00
sVNominated Best Music, Dramatic Score
p685
I00
sVNominated Best Music, Musical or Comedy Score
p686
I00
sVWon Best Film Editing
p687
I00
sVNominated Best Music, Musical Picture
p688
I00
sVNominated Irving G. Thalberg Memorial Award
p689
I00
sVNominated Best Art Direction
p690
I00
sVNominated Honorary Award
p691
I00
sVNominated Best Short Subject, Cartoon
p692
I00
sg198
VChang: A Drama of the Wilderness (1927)
p693
sVWon Best Engineering Effects
p694
I00
sVNominated Best Actor
p695
I00
sVWon Best Cinematography
p696
I00
sVNominated Best Actress
p697
I00
sVNominated Best Writing, Adapted Screenplay
p698
I00
sVWon Best Sound
p699
I00
sVNominated Best Short Subject, Live Action
p700
I00
sVNominated Jean Hersholt Humanitarian Award
p701
I00
sVWon Best Documentary
p702
I00
sVWon Special Award
p703
I00
ssVThe Racket
p704
(dp705
VNominated Best Sound Effects Editing
p706
I00
sVWon Best Music, Musical Picture
p707
I00
sVNominated Best Foreign Language Film
p708
I00
sVNominated Gordon E. Sawyer Award
p709
I00
sVWon Best Short Subject, Color
p710
I00
sVWon Best Short Film, Animated
p711
I00
sVNominated Best Short Subject, Novelty
p712
I00
sVNominated Best Makeup
p713
I00
sVNominated Best Writing
p714
I00
sVWon Best Picture
p715
I00
sVNominated Best Costume Design, Color
p716
I00
sVNominated Award of Commendation
p717
I00
sVWon Best Actress
p718
I00
sVNominated Medal of Commendation
p719
I00
sVWon Best Makeup
p720
I00
sVNominated Best Director, Drama
p721
I00
sVWon Best Costume Design
p722
I00
sVWon Best Writing, Adapted Screenplay
p723
I00
sVWon Best Writing
p724
I00
sVNominated Best Short Subject, Comedy
p725
I00
sVWon Best Costume Design, Color
p726
I00
sVNominated Best Visual Effects
p727
I00
sVWon Best Sound Effects Editing
p728
I00
sVWon Best Costume Design, Black-and-White
p729
I00
sVNominated Best Supporting Actor
p730
I00
sVWon Best Art Direction, Color
p731
I00
sVNominated Best Documentary, Short Subject
p732
I00
sVNominated Special Achievement Award
p733
I00
sVWon Medal of Commendation
p734
I00
sVWon Best Art Direction, Black-and-White
p735
I00
sVWon Jean Hersholt Humanitarian Award
p736
I00
sVWon Best Animated Feature Film
p737
I00
sVWon Best Supporting Actor
p738
I00
sVWon Best Special Visual Effects
p739
I00
sVWon Best Short Subject, One-reel
p740
I00
sVNominated Best Film Editing
p741
I00
sVWon Best Sound Effects
p742
I00
sVNominated Best Writing, Original Story
p743
I00
sVNominated Best Cinematography, Black-and-White
p744
I00
sg43
(lp745
sVWon Best Short Subject, Two-reel
p746
I00
sg47
S'1927-1928'
p747
sVWon Honorary Award
p748
I00
sVWon Best Short Subject, Comedy
p749
I00
sVWon Best Director, Comedy
p750
I00
sVNominated Best Sound Recording
p751
I00
sVNominated Best Cinematography
p752
I00
sVWon Best Documentary, Feature
p753
I00
sVNominated Best Short Film, Live Action
p754
I00
sVWon Best Director
p755
I00
sg57
(lp756
sg59
(lp757
VThe Caddo Company
p758
asVWon Best Music, Original Score
p759
I00
sVWon Gordon E. Sawyer Award
p760
I00
sVWon Best Short Subject, Cartoon
p761
I00
sVWon Best Short Subject, Live Action
p762
I00
sVWon Best Music, Dramatic Picture
p763
I00
sVWon Best Documentary, Short Subject
p764
I00
sVNominated Best Music, Song
p765
I00
sVNominated Best Short Subject, One-reel
p766
I00
sVWon Best Cinematography, Black-and-White
p767
I00
sVWon Best Writing, Original Story
p768
I00
sVNominated Best Supporting Actress
p769
I00
sVNominated Best Special Visual Effects
p770
I00
sVWon Best Music, Scoring
p771
I00
sVWon Best Sound Mixing
p772
I00
sVWon Award of Commendation
p773
I00
sVNominated Best Music, Scoring
p774
I00
sVNominated Best Picture
p775
I01
sVNominated Best Sound Mixing
p776
I00
sVWon Best Music, Dramatic Score
p777
I00
sVWon Best Music, Adaptation / Original Song Score
p778
I00
sVNominated Best Writing, Original Screenplay
p779
I00
sVWon Best Writing, Title Writing
p780
I00
sVWon Best Assistant Director
p781
I00
sVNominated Best Sound Editing
p782
I00
sVNominated Best Art Direction, Color
p783
I00
sVNominated Best Assistant Director
p784
I00
sVWon Best Sound Editing
p785
I00
sVNominated Best Documentary
p786
I00
sVWon Irving G. Thalberg Memorial Award
p787
I00
sVNominated Best Dance Direction
p788
I00
sVWon Best Unique and Artistic Picture
p789
I00
sVNominated Best Short Subject, Color
p790
I00
sVWon Best Short Subject, Novelty
p791
I00
sVWon Best Music, Musical or Comedy Score
p792
I00
sVNominated Best Short Subject, Two-reel
p793
I00
sVNominated Best Art Direction, Black-and-White
p794
I00
sVNominated Special Award
p795
I00
sVNominated Best Music, Dramatic or Comedy Picture
p796
I00
sVWon Best Dance Direction
p797
I00
sVNominated Best Short Film, Animated
p798
I00
sVNominated Best Animated Feature Film
p799
I00
sVWon Best Sound Recording
p800
I00
sVWon Best Short Subject, Animated
p801
I00
sVNominated Best Writing, Title Writing
p802
I00
sVNominated Best Music, Original Score
p803
I00
sVWon Special Achievement Award
p804
I00
sVNominated Best Director, Comedy
p805
I00
sVNominated Best Costume Design, Black-and-White
p806
I00
sVNominated Best Music, Dramatic Picture
p807
I00
sVWon Best Visual Effects
p808
I00
sg112
(lp809
sg165
(lp810
VBest Picture
p811
asVWon Best Special Effects
p812
I00
sVWon Best Music, Song
p813
I00
sVNominated Best Director
p814
I00
sVWon Best Supporting Actress
p815
I00
sVNominated Best Sound Effects
p816
I00
sVWon Best Actor
p817
I00
sVNominated Best Documentary, Feature
p818
I00
sVNominated Best Short Subject, Animated
p819
I00
sVNominated Best Engineering Effects
p820
I00
sVNominated Best Special Effects
p821
I00
sVWon Best Art Direction
p822
I00
sVWon Best Director, Drama
p823
I00
sVNominated Best Costume Design
p824
I00
sVWon Best Writing, Original Screenplay
p825
I00
sVNominated Best Music, Adaptation / Original Song Score
p826
I00
sVNominated Best Unique and Artistic Picture
p827
I00
sVWon Best Foreign Language Film
p828
I00
sVNominated Best Sound
p829
I00
sVNominated Best Cinematography, Color
p830
I00
sVWon Best Cinematography, Color
p831
I00
sVWon Best Short Film, Live Action
p832
I00
sVWon Best Music, Dramatic or Comedy Picture
p833
I00
sVNominated Best Music, Dramatic Score
p834
I00
sVNominated Best Music, Musical or Comedy Score
p835
I00
sVWon Best Film Editing
p836
I00
sVNominated Best Music, Musical Picture
p837
I00
sVNominated Irving G. Thalberg Memorial Award
p838
I00
sVNominated Best Art Direction
p839
I00
sVNominated Honorary Award
p840
I00
sVNominated Best Short Subject, Cartoon
p841
I00
sg198
VThe Racket (1927)
p842
sVWon Best Engineering Effects
p843
I00
sVNominated Best Actor
p844
I00
sVWon Best Cinematography
p845
I00
sVNominated Best Actress
p846
I00
sVNominated Best Writing, Adapted Screenplay
p847
I00
sVWon Best Sound
p848
I00
sVNominated Best Short Subject, Live Action
p849
I00
sVNominated Jean Hersholt Humanitarian Award
p850
I00
sVWon Best Documentary
p851
I00
sVWon Special Award
p852
I00
ssVSadie Thompson
p853
(dp854
VNominated Best Sound Effects Editing
p855
I00
sVWon Best Music, Musical Picture
p856
I00
sVNominated Best Foreign Language Film
p857
I00
sVNominated Gordon E. Sawyer Award
p858
I00
sVWon Best Short Subject, Color
p859
I00
sVWon Best Short Film, Animated
p860
I00
sVNominated Best Short Subject, Novelty
p861
I00
sVNominated Best Makeup
p862
I00
sVNominated Best Writing
p863
I00
sVWon Best Picture
p864
I00
sVNominated Best Costume Design, Color
p865
I00
sVNominated Award of Commendation
p866
I00
sVWon Best Actress
p867
I00
sVNominated Medal of Commendation
p868
I00
sVWon Best Makeup
p869
I00
sVNominated Best Director, Drama
p870
I00
sVWon Best Costume Design
p871
I00
sVWon Best Writing, Adapted Screenplay
p872
I00
sVWon Best Writing
p873
I00
sVNominated Best Short Subject, Comedy
p874
I00
sVWon Best Costume Design, Color
p875
I00
sVNominated Best Visual Effects
p876
I00
sVWon Best Sound Effects Editing
p877
I00
sVWon Best Costume Design, Black-and-White
p878
I00
sVNominated Best Supporting Actor
p879
I00
sVWon Best Art Direction, Color
p880
I00
sVNominated Best Documentary, Short Subject
p881
I00
sVNominated Special Achievement Award
p882
I00
sVWon Medal of Commendation
p883
I00
sVWon Best Art Direction, Black-and-White
p884
I00
sVWon Jean Hersholt Humanitarian Award
p885
I00
sVWon Best Animated Feature Film
p886
I00
sVWon Best Supporting Actor
p887
I00
sVWon Best Special Visual Effects
p888
I00
sVWon Best Short Subject, One-reel
p889
I00
sVNominated Best Film Editing
p890
I00
sVWon Best Sound Effects
p891
I00
sVNominated Best Writing, Original Story
p892
I00
sVNominated Best Cinematography, Black-and-White
p893
I00
sg43
(lp894
S'0046076'
p895
aS'0019344'
p896
aS'0528107'
p897
asVWon Best Short Subject, Two-reel
p898
I00
sg47
S'1927-1928'
p899
sVWon Honorary Award
p900
I00
sVWon Best Short Subject, Comedy
p901
I00
sVWon Best Director, Comedy
p902
I00
sVNominated Best Sound Recording
p903
I00
sVNominated Best Cinematography
p904
I00
sVWon Best Documentary, Feature
p905
I00
sVNominated Best Short Film, Live Action
p906
I00
sVWon Best Director
p907
I00
sg57
(lp908
sg59
(lp909
VGloria Swanson
p910
asVWon Best Music, Original Score
p911
I00
sVWon Gordon E. Sawyer Award
p912
I00
sVWon Best Short Subject, Cartoon
p913
I00
sVWon Best Short Subject, Live Action
p914
I00
sVWon Best Music, Dramatic Picture
p915
I00
sVWon Best Documentary, Short Subject
p916
I00
sVNominated Best Music, Song
p917
I00
sVNominated Best Short Subject, One-reel
p918
I00
sVWon Best Cinematography, Black-and-White
p919
I00
sVWon Best Writing, Original Story
p920
I00
sVNominated Best Supporting Actress
p921
I00
sVNominated Best Special Visual Effects
p922
I00
sVWon Best Music, Scoring
p923
I00
sVWon Best Sound Mixing
p924
I00
sVWon Award of Commendation
p925
I00
sVNominated Best Music, Scoring
p926
I00
sVNominated Best Picture
p927
I00
sVNominated Best Sound Mixing
p928
I00
sVWon Best Music, Dramatic Score
p929
I00
sVWon Best Music, Adaptation / Original Song Score
p930
I00
sVNominated Best Writing, Original Screenplay
p931
I00
sVWon Best Writing, Title Writing
p932
I00
sVWon Best Assistant Director
p933
I00
sVNominated Best Sound Editing
p934
I00
sVNominated Best Art Direction, Color
p935
I00
sVNominated Best Assistant Director
p936
I00
sVWon Best Sound Editing
p937
I00
sVNominated Best Documentary
p938
I00
sVWon Irving G. Thalberg Memorial Award
p939
I00
sVNominated Best Dance Direction
p940
I00
sVWon Best Unique and Artistic Picture
p941
I00
sVNominated Best Short Subject, Color
p942
I00
sVWon Best Short Subject, Novelty
p943
I00
sVWon Best Music, Musical or Comedy Score
p944
I00
sVNominated Best Short Subject, Two-reel
p945
I00
sVNominated Best Art Direction, Black-and-White
p946
I00
sVNominated Special Award
p947
I00
sVNominated Best Music, Dramatic or Comedy Picture
p948
I00
sVWon Best Dance Direction
p949
I00
sVNominated Best Short Film, Animated
p950
I00
sVNominated Best Animated Feature Film
p951
I00
sVWon Best Sound Recording
p952
I00
sVWon Best Short Subject, Animated
p953
I00
sVNominated Best Writing, Title Writing
p954
I00
sVNominated Best Music, Original Score
p955
I00
sVWon Special Achievement Award
p956
I00
sVNominated Best Director, Comedy
p957
I00
sVNominated Best Costume Design, Black-and-White
p958
I00
sVNominated Best Music, Dramatic Picture
p959
I00
sVWon Best Visual Effects
p960
I00
sg112
(lp961
g114
(g115
g116
NtRp962
(dp963
g119
I00
sg120
g121
sg122
g895
sg123
(dp964
sg125
(lp965
sg127
(dp966
g129
Nsg130
Nsg131
Nsg132
Nsg133
Nsg134
Nsg135
Nsg136
Nsg137
Nsg138
Nsg139
Nsg140
Nsg141
Nsg142
Nssg143
V
sg144
(dp967
sg146
V
sg147
(dp968
sg149
g150
sg151
(dp969
sg153
Nsg154
Nsg155
(dp970
sg157
(dp971
g159
g160
sg161
VMiss Sadie Thompson
p972
sg47
I1953
ssg163
g164
sbag114
(g115
g116
NtRp973
(dp974
g119
I00
sg120
g121
sg122
g896
sg123
(dp975
sg125
(lp976
sg127
(dp977
g129
Nsg130
Nsg131
Nsg132
Nsg133
Nsg134
Nsg135
Nsg136
Nsg137
Nsg138
Nsg139
Nsg140
Nsg141
Nsg142
Nssg143
V
sg144
(dp978
sg146
V
sg147
(dp979
sg149
g150
sg151
(dp980
sg153
Nsg154
Nsg155
(dp981
sg157
(dp982
g159
g160
sg161
VSadie Thompson
p983
sg47
I1928
ssg163
g164
sbag114
(g115
g116
NtRp984
(dp985
g119
I00
sg120
g121
sg122
g897
sg123
(dp986
sg125
(lp987
sg127
(dp988
g129
Nsg130
Nsg131
Nsg132
Nsg133
Nsg134
Nsg135
Nsg136
Nsg137
Nsg138
Nsg139
Nsg140
Nsg141
Nsg142
Nssg143
V
sg144
(dp989
sg146
V
sg147
(dp990
sg149
g150
sg151
(dp991
sg153
Nsg154
Nsg155
(dp992
sg157
(dp993
S'episode of'
p994
VThe Bob Cummings Show
p995
sg159
Vepisode
p996
sg161
VMargaret Becomes Sadie Thompson
p997
sS'series year'
p998
I1955
sg47
I1956
ssg163
g164
sbasg165
(lp999
g167
asVWon Best Special Effects
p1000
I00
sVWon Best Music, Song
p1001
I00
sVNominated Best Director
p1002
I00
sVWon Best Supporting Actress
p1003
I00
sVNominated Best Sound Effects
p1004
I00
sVWon Best Actor
p1005
I00
sVNominated Best Documentary, Feature
p1006
I00
sVNominated Best Short Subject, Animated
p1007
I00
sVNominated Best Engineering Effects
p1008
I00
sVNominated Best Special Effects
p1009
I00
sVWon Best Art Direction
p1010
I00
sVWon Best Director, Drama
p1011
I00
sVNominated Best Costume Design
p1012
I00
sVWon Best Writing, Original Screenplay
p1013
I00
sVNominated Best Music, Adaptation / Original Song Score
p1014
I00
sVNominated Best Unique and Artistic Picture
p1015
I00
sVWon Best Foreign Language Film
p1016
I00
sVNominated Best Sound
p1017
I00
sVNominated Best Cinematography, Color
p1018
I00
sVWon Best Cinematography, Color
p1019
I00
sVWon Best Short Film, Live Action
p1020
I00
sVWon Best Music, Dramatic or Comedy Picture
p1021
I00
sVNominated Best Music, Dramatic Score
p1022
I00
sVNominated Best Music, Musical or Comedy Score
p1023
I00
sVWon Best Film Editing
p1024
I00
sVNominated Best Music, Musical Picture
p1025
I00
sVNominated Irving G. Thalberg Memorial Award
p1026
I00
sVNominated Best Art Direction
p1027
I00
sVNominated Honorary Award
p1028
I00
sVNominated Best Short Subject, Cartoon
p1029
I00
sg198
VSadie Thompson (1927)
p1030
sVWon Best Engineering Effects
p1031
I00
sVNominated Best Actor
p1032
I00
sVWon Best Cinematography
p1033
I00
sVNominated Best Actress
p1034
I01
sVNominated Best Writing, Adapted Screenplay
p1035
I00
sVWon Best Sound
p1036
I00
sVNominated Best Short Subject, Live Action
p1037
I00
sVNominated Jean Hersholt Humanitarian Award
p1038
I00
sVWon Best Documentary
p1039
I00
sVWon Special Award
p1040
I00
ssVThe Last Command
p1041
(dp1042
VNominated Best Sound Effects Editing
p1043
I00
sVWon Best Music, Musical Picture
p1044
I00
sVNominated Best Foreign Language Film
p1045
I00
sVNominated Gordon E. Sawyer Award
p1046
I00
sVWon Best Short Subject, Color
p1047
I00
sVWon Best Short Film, Animated
p1048
I00
sVNominated Best Short Subject, Novelty
p1049
I00
sVNominated Best Makeup
p1050
I00
sVNominated Best Writing
p1051
I00
sVWon Best Picture
p1052
I00
sVNominated Best Costume Design, Color
p1053
I00
sVNominated Award of Commendation
p1054
I00
sVWon Best Actress
p1055
I00
sVNominated Medal of Commendation
p1056
I00
sVWon Best Makeup
p1057
I00
sVNominated Best Director, Drama
p1058
I00
sVWon Best Costume Design
p1059
I00
sVWon Best Writing, Adapted Screenplay
p1060
I00
sVWon Best Writing
p1061
I00
sVNominated Best Short Subject, Comedy
p1062
I00
sVWon Best Costume Design, Color
p1063
I00
sVNominated Best Visual Effects
p1064
I00
sVWon Best Sound Effects Editing
p1065
I00
sVWon Best Costume Design, Black-and-White
p1066
I00
sVNominated Best Supporting Actor
p1067
I00
sVWon Best Art Direction, Color
p1068
I00
sVNominated Best Documentary, Short Subject
p1069
I00
sVNominated Special Achievement Award
p1070
I00
sVWon Medal of Commendation
p1071
I00
sVWon Best Art Direction, Black-and-White
p1072
I00
sVWon Jean Hersholt Humanitarian Award
p1073
I00
sVWon Best Animated Feature Film
p1074
I00
sVWon Best Supporting Actor
p1075
I00
sVWon Best Special Visual Effects
p1076
I00
sVWon Best Short Subject, One-reel
p1077
I00
sVNominated Best Film Editing
p1078
I00
sVWon Best Sound Effects
p1079
I00
sVNominated Best Writing, Original Story
p1080
I00
sVNominated Best Cinematography, Black-and-White
p1081
I00
sg43
(lp1082
S'0019071'
p1083
aS'0048287'
p1084
aS'0595393'
p1085
aS'4155264'
p1086
aS'2539992'
p1087
aS'4155262'
p1088
aS'2619396'
p1089
asVWon Best Short Subject, Two-reel
p1090
I00
sg47
S'1927-1928'
p1091
sVWon Honorary Award
p1092
I00
sVWon Best Short Subject, Comedy
p1093
I00
sVWon Best Director, Comedy
p1094
I00
sVNominated Best Sound Recording
p1095
I00
sVNominated Best Cinematography
p1096
I00
sVWon Best Documentary, Feature
p1097
I00
sVNominated Best Short Film, Live Action
p1098
I00
sVWon Best Director
p1099
I00
sg57
(lp1100
g502
asg59
(lp1101
VEmil Jannings
p1102
asVWon Best Music, Original Score
p1103
I00
sVWon Gordon E. Sawyer Award
p1104
I00
sVWon Best Short Subject, Cartoon
p1105
I00
sVWon Best Short Subject, Live Action
p1106
I00
sVWon Best Music, Dramatic Picture
p1107
I00
sVWon Best Documentary, Short Subject
p1108
I00
sVNominated Best Music, Song
p1109
I00
sVNominated Best Short Subject, One-reel
p1110
I00
sVWon Best Cinematography, Black-and-White
p1111
I00
sVWon Best Writing, Original Story
p1112
I00
sVNominated Best Supporting Actress
p1113
I00
sVNominated Best Special Visual Effects
p1114
I00
sVWon Best Music, Scoring
p1115
I00
sVWon Best Sound Mixing
p1116
I00
sVWon Award of Commendation
p1117
I00
sVNominated Best Music, Scoring
p1118
I00
sVNominated Best Picture
p1119
I00
sVNominated Best Sound Mixing
p1120
I00
sVWon Best Music, Dramatic Score
p1121
I00
sVWon Best Music, Adaptation / Original Song Score
p1122
I00
sVNominated Best Writing, Original Screenplay
p1123
I00
sVWon Best Writing, Title Writing
p1124
I00
sVWon Best Assistant Director
p1125
I00
sVNominated Best Sound Editing
p1126
I00
sVNominated Best Art Direction, Color
p1127
I00
sVNominated Best Assistant Director
p1128
I00
sVWon Best Sound Editing
p1129
I00
sVNominated Best Documentary
p1130
I00
sVWon Irving G. Thalberg Memorial Award
p1131
I00
sVNominated Best Dance Direction
p1132
I00
sVWon Best Unique and Artistic Picture
p1133
I00
sVNominated Best Short Subject, Color
p1134
I00
sVWon Best Short Subject, Novelty
p1135
I00
sVWon Best Music, Musical or Comedy Score
p1136
I00
sVNominated Best Short Subject, Two-reel
p1137
I00
sVNominated Best Art Direction, Black-and-White
p1138
I00
sVNominated Special Award
p1139
I00
sVNominated Best Music, Dramatic or Comedy Picture
p1140
I00
sVWon Best Dance Direction
p1141
I00
sVNominated Best Short Film, Animated
p1142
I00
sVNominated Best Animated Feature Film
p1143
I00
sVWon Best Sound Recording
p1144
I00
sVWon Best Short Subject, Animated
p1145
I00
sVNominated Best Writing, Title Writing
p1146
I00
sVNominated Best Music, Original Score
p1147
I00
sVWon Special Achievement Award
p1148
I00
sVNominated Best Director, Comedy
p1149
I00
sVNominated Best Costume Design, Black-and-White
p1150
I00
sVNominated Best Music, Dramatic Picture
p1151
I00
sVWon Best Visual Effects
p1152
I00
sg112
(lp1153
g114
(g115
g116
NtRp1154
(dp1155
g119
I00
sg120
g121
sg122
g1083
sg123
(dp1156
sg125
(lp1157
sg127
(dp1158
g129
Nsg130
Nsg131
Nsg132
Nsg133
Nsg134
Nsg135
Nsg136
Nsg137
Nsg138
Nsg139
Nsg140
Nsg141
Nsg142
Nssg143
V
sg144
(dp1159
sg146
V
sg147
(dp1160
sg149
g150
sg151
(dp1161
sg153
Nsg154
Nsg155
(dp1162
sg157
(dp1163
g159
g160
sg161
VThe Last Command
p1164
sg47
I1928
ssg163
g164
sbag114
(g115
g116
NtRp1165
(dp1166
g119
I00
sg120
g121
sg122
g1084
sg123
(dp1167
sg125
(lp1168
sg127
(dp1169
g129
Nsg130
Nsg131
Nsg132
Nsg133
Nsg134
Nsg135
Nsg136
Nsg137
Nsg138
Nsg139
Nsg140
Nsg141
Nsg142
Nssg143
V
sg144
(dp1170
sg146
V
sg147
(dp1171
sg149
g150
sg151
(dp1172
sg153
Nsg154
Nsg155
(dp1173
sg157
(dp1174
g159
g160
sg161
VThe Last Command
p1175
sg47
I1955
ssg163
g164
sbag114
(g115
g116
NtRp1176
(dp1177
g119
I00
sg120
g121
sg122
g1085
sg123
(dp1178
sg125
(lp1179
sg127
(dp1180
g129
Nsg130
Nsg131
Nsg132
Nsg133
Nsg134
Nsg135
Nsg136
Nsg137
Nsg138
Nsg139
Nsg140
Nsg141
Nsg142
Nssg143
V
sg144
(dp1181
sg146
V
sg147
(dp1182
sg149
g150
sg151
(dp1183
sg153
Nsg154
Nsg155
(dp1184
sg157
(dp1185
g159
Vtv movie
p1186
sg161
VThe Last Command
p1187
sg47
I1952
ssg163
g164
sbag114
(g115
g116
NtRp1188
(dp1189
g119
I00
sg120
g121
sg122
g1086
sg123
(dp1190
sg125
(lp1191
sg127
(dp1192
g129
Nsg130
Nsg131
Nsg132
Nsg133
Nsg134
Nsg135
Nsg136
Nsg137
Nsg138
Nsg139
Nsg140
Nsg141
Nsg142
Nssg143
V
sg144
(dp1193
sg146
V
sg147
(dp1194
sg149
g150
sg151
(dp1195
sg153
Nsg154
Nsg155
(dp1196
sg157
(dp1197
g994
VAustralian Story
p1198
sg159
g996
sg161
VThe Last Commando Part 2
p1199
sg998
I1996
sg47
I2014
ssg163
g164
sbag114
(g115
g116
NtRp1200
(dp1201
g119
I00
sg120
g121
sg122
g1087
sg123
(dp1202
sg125
(lp1203
sg127
(dp1204
g129
Nsg130
Nsg131
Nsg132
Nsg133
Nsg134
Nsg135
Nsg136
Nsg137
Nsg138
Nsg139
Nsg140
Nsg141
Nsg142
Nssg143
V
sg144
(dp1205
sg146
V
sg147
(dp1206
sg149
g150
sg151
(dp1207
sg153
Nsg154
Nsg155
(dp1208
sg157
(dp1209
g994
VFate/Zero
p1210
sg159
g996
sg161
VThe Last Command Seal
p1211
sg998
I2011
sg47
I2012
ssg163
g164
sbag114
(g115
g116
NtRp1212
(dp1213
g119
I00
sg120
g121
sg122
g1088
sg123
(dp1214
sg125
(lp1215
sg127
(dp1216
g129
Nsg130
Nsg131
Nsg132
Nsg133
Nsg134
Nsg135
Nsg136
Nsg137
Nsg138
Nsg139
Nsg140
Nsg141
Nsg142
Nssg143
V
sg144
(dp1217
sg146
V
sg147
(dp1218
sg149
g150
sg151
(dp1219
sg153
Nsg154
Nsg155
(dp1220
sg157
(dp1221
g994
VAustralian Story
p1222
sg159
g996
sg161
VThe Last Commando Part 1
p1223
sg998
I1996
sg47
I2014
ssg163
g164
sbag114
(g115
g116
NtRp1224
(dp1225
g119
I00
sg120
g121
sg122
g1089
sg123
(dp1226
sg125
(lp1227
sg127
(dp1228
g129
Nsg130
Nsg131
Nsg132
Nsg133
Nsg134
Nsg135
Nsg136
Nsg137
Nsg138
Nsg139
Nsg140
Nsg141
Nsg142
Nssg143
V
sg144
(dp1229
sg146
V
sg147
(dp1230
sg149
g150
sg151
(dp1231
sg153
Nsg154
Nsg155
(dp1232
sg157
(dp1233
g994
V60 Minutes
p1234
sg159
g996
sg161
VThe Lost Commandos/The Last Supper/Timber Wars
p1235
sg998
I1968
sg47
I1996
ssg163
g164
sbasg165
(lp1236
g502
asVWon Best Special Effects
p1237
I00
sVWon Best Music, Song
p1238
I00
sVNominated Best Director
p1239
I00
sVWon Best Supporting Actress
p1240
I00
sVNominated Best Sound Effects
p1241
I00
sVWon Best Actor
p1242
I01
sVNominated Best Documentary, Feature
p1243
I00
sVNominated Best Short Subject, Animated
p1244
I00
sVNominated Best Engineering Effects
p1245
I00
sVNominated Best Special Effects
p1246
I00
sVWon Best Art Direction
p1247
I00
sVWon Best Director, Drama
p1248
I00
sVNominated Best Costume Design
p1249
I00
sVWon Best Writing, Original Screenplay
p1250
I00
sVNominated Best Music, Adaptation / Original Song Score
p1251
I00
sVNominated Best Unique and Artistic Picture
p1252
I00
sVWon Best Foreign Language Film
p1253
I00
sVNominated Best Sound
p1254
I00
sVNominated Best Cinematography, Color
p1255
I00
sVWon Best Cinematography, Color
p1256
I00
sVWon Best Short Film, Live Action
p1257
I00
sVWon Best Music, Dramatic or Comedy Picture
p1258
I00
sVNominated Best Music, Dramatic Score
p1259
I00
sVNominated Best Music, Musical or Comedy Score
p1260
I00
sVWon Best Film Editing
p1261
I00
sVNominated Best Music, Musical Picture
p1262
I00
sVNominated Irving G. Thalberg Memorial Award
p1263
I00
sVNominated Best Art Direction
p1264
I00
sVNominated Honorary Award
p1265
I00
sVNominated Best Short Subject, Cartoon
p1266
I00
sg198
VThe Last Command (1927)
p1267
sVWon Best Engineering Effects
p1268
I00
sVNominated Best Actor
p1269
I01
sVWon Best Cinematography
p1270
I00
sVNominated Best Actress
p1271
I00
sVNominated Best Writing, Adapted Screenplay
p1272
I00
sVWon Best Sound
p1273
I00
sVNominated Best Short Subject, Live Action
p1274
I00
sVNominated Jean Hersholt Humanitarian Award
p1275
I00
sVWon Best Documentary
p1276
I00
sVWon Special Award
p1277
I00
ssV7th Heaven
p1278
(dp1279
VNominated Best Sound Effects Editing
p1280
I00
sVWon Best Music, Musical Picture
p1281
I00
sVNominated Best Foreign Language Film
p1282
I00
sVNominated Gordon E. Sawyer Award
p1283
I00
sVWon Best Short Subject, Color
p1284
I00
sVWon Best Short Film, Animated
p1285
I00
sVNominated Best Short Subject, Novelty
p1286
I00
sVNominated Best Makeup
p1287
I00
sVNominated Best Writing
p1288
I00
sVWon Best Picture
p1289
I00
sVNominated Best Costume Design, Color
p1290
I00
sVNominated Award of Commendation
p1291
I00
sVWon Best Actress
p1292
I01
sVNominated Medal of Commendation
p1293
I00
sVWon Best Makeup
p1294
I00
sVNominated Best Director, Drama
p1295
I00
sVWon Best Costume Design
p1296
I00
sVWon Best Writing, Adapted Screenplay
p1297
I00
sVWon Best Writing
p1298
I00
sVNominated Best Short Subject, Comedy
p1299
I00
sVWon Best Costume Design, Color
p1300
I00
sVNominated Best Visual Effects
p1301
I00
sVWon Best Sound Effects Editing
p1302
I00
sVWon Best Costume Design, Black-and-White
p1303
I00
sVNominated Best Supporting Actor
p1304
I00
sVWon Best Art Direction, Color
p1305
I00
sVNominated Best Documentary, Short Subject
p1306
I00
sVNominated Special Achievement Award
p1307
I00
sVWon Medal of Commendation
p1308
I00
sVWon Best Art Direction, Black-and-White
p1309
I00
sVWon Jean Hersholt Humanitarian Award
p1310
I00
sVWon Best Animated Feature Film
p1311
I00
sVWon Best Supporting Actor
p1312
I00
sVWon Best Special Visual Effects
p1313
I00
sVWon Best Short Subject, One-reel
p1314
I00
sVNominated Best Film Editing
p1315
I00
sVWon Best Sound Effects
p1316
I00
sVNominated Best Writing, Original Story
p1317
I00
sVNominated Best Cinematography, Black-and-White
p1318
I00
sg43
(lp1319
S'0018379'
p1320
asVWon Best Short Subject, Two-reel
p1321
I00
sg47
S'1927-1928'
p1322
sVWon Honorary Award
p1323
I00
sVWon Best Short Subject, Comedy
p1324
I00
sVWon Best Director, Comedy
p1325
I00
sVNominated Best Sound Recording
p1326
I00
sVNominated Best Cinematography
p1327
I00
sVWon Best Documentary, Feature
p1328
I00
sVNominated Best Short Film, Live Action
p1329
I00
sVWon Best Director
p1330
I00
sg57
(lp1331
g167
asg59
(lp1332
VFox
p1333
aVJanet Gaynor
p1334
asVWon Best Music, Original Score
p1335
I00
sVWon Gordon E. Sawyer Award
p1336
I00
sVWon Best Short Subject, Cartoon
p1337
I00
sVWon Best Short Subject, Live Action
p1338
I00
sVWon Best Music, Dramatic Picture
p1339
I00
sVWon Best Documentary, Short Subject
p1340
I00
sVNominated Best Music, Song
p1341
I00
sVNominated Best Short Subject, One-reel
p1342
I00
sVWon Best Cinematography, Black-and-White
p1343
I00
sVWon Best Writing, Original Story
p1344
I00
sVNominated Best Supporting Actress
p1345
I00
sVNominated Best Special Visual Effects
p1346
I00
sVWon Best Music, Scoring
p1347
I00
sVWon Best Sound Mixing
p1348
I00
sVWon Award of Commendation
p1349
I00
sVNominated Best Music, Scoring
p1350
I00
sVNominated Best Picture
p1351
I01
sVNominated Best Sound Mixing
p1352
I00
sVWon Best Music, Dramatic Score
p1353
I00
sVWon Best Music, Adaptation / Original Song Score
p1354
I00
sVNominated Best Writing, Original Screenplay
p1355
I00
sVWon Best Writing, Title Writing
p1356
I00
sVWon Best Assistant Director
p1357
I00
sVNominated Best Sound Editing
p1358
I00
sVNominated Best Art Direction, Color
p1359
I00
sVNominated Best Assistant Director
p1360
I00
sVWon Best Sound Editing
p1361
I00
sVNominated Best Documentary
p1362
I00
sVWon Irving G. Thalberg Memorial Award
p1363
I00
sVNominated Best Dance Direction
p1364
I00
sVWon Best Unique and Artistic Picture
p1365
I00
sVNominated Best Short Subject, Color
p1366
I00
sVWon Best Short Subject, Novelty
p1367
I00
sVWon Best Music, Musical or Comedy Score
p1368
I00
sVNominated Best Short Subject, Two-reel
p1369
I00
sVNominated Best Art Direction, Black-and-White
p1370
I00
sVNominated Special Award
p1371
I00
sVNominated Best Music, Dramatic or Comedy Picture
p1372
I00
sVWon Best Dance Direction
p1373
I00
sVNominated Best Short Film, Animated
p1374
I00
sVNominated Best Animated Feature Film
p1375
I00
sVWon Best Sound Recording
p1376
I00
sVWon Best Short Subject, Animated
p1377
I00
sVNominated Best Writing, Title Writing
p1378
I00
sVNominated Best Music, Original Score
p1379
I00
sVWon Special Achievement Award
p1380
I00
sVNominated Best Director, Comedy
p1381
I00
sVNominated Best Costume Design, Black-and-White
p1382
I00
sVNominated Best Music, Dramatic Picture
p1383
I00
sVWon Best Visual Effects
p1384
I00
sg112
(lp1385
g114
(g115
g116
NtRp1386
(dp1387
g119
I00
sg120
g121
sg122
g1320
sg123
(dp1388
sg125
(lp1389
sg127
(dp1390
g129
Nsg130
Nsg131
Nsg132
Nsg133
Nsg134
Nsg135
Nsg136
Nsg137
Nsg138
Nsg139
Nsg140
Nsg141
Nsg142
Nssg143
V
sg144
(dp1391
sg146
V
sg147
(dp1392
sg149
g150
sg151
(dp1393
sg153
Nsg154
Nsg155
(dp1394
sg157
(dp1395
g159
g160
sg161
V7th Heaven
p1396
sg47
I1927
ssg163
g164
sbasg165
(lp1397
g811
ag167
asVWon Best Special Effects
p1398
I00
sVWon Best Music, Song
p1399
I00
sVNominated Best Director
p1400
I00
sVWon Best Supporting Actress
p1401
I00
sVNominated Best Sound Effects
p1402
I00
sVWon Best Actor
p1403
I00
sVNominated Best Documentary, Feature
p1404
I00
sVNominated Best Short Subject, Animated
p1405
I00
sVNominated Best Engineering Effects
p1406
I00
sVNominated Best Special Effects
p1407
I00
sVWon Best Art Direction
p1408
I00
sVWon Best Director, Drama
p1409
I00
sVNominated Best Costume Design
p1410
I00
sVWon Best Writing, Original Screenplay
p1411
I00
sVNominated Best Music, Adaptation / Original Song Score
p1412
I00
sVNominated Best Unique and Artistic Picture
p1413
I00
sVWon Best Foreign Language Film
p1414
I00
sVNominated Best Sound
p1415
I00
sVNominated Best Cinematography, Color
p1416
I00
sVWon Best Cinematography, Color
p1417
I00
sVWon Best Short Film, Live Action
p1418
I00
sVWon Best Music, Dramatic or Comedy Picture
p1419
I00
sVNominated Best Music, Dramatic Score
p1420
I00
sVNominated Best Music, Musical or Comedy Score
p1421
I00
sVWon Best Film Editing
p1422
I00
sVNominated Best Music, Musical Picture
p1423
I00
sVNominated Irving G. Thalberg Memorial Award
p1424
I00
sVNominated Best Art Direction
p1425
I00
sVNominated Honorary Award
p1426
I00
sVNominated Best Short Subject, Cartoon
p1427
I00
sg198
V7th Heaven (1927)
p1428
sVWon Best Engineering Effects
p1429
I00
sVNominated Best Actor
p1430
I00
sVWon Best Cinematography
p1431
I00
sVNominated Best Actress
p1432
I01
sVNominated Best Writing, Adapted Screenplay
p1433
I00
sVWon Best Sound
p1434
I00
sVNominated Best Short Subject, Live Action
p1435
I00
sVNominated Jean Hersholt Humanitarian Award
p1436
I00
sVWon Best Documentary
p1437
I00
sVWon Special Award
p1438
I00
ssVThe Way of All Flesh
p1439
(dp1440
VNominated Best Sound Effects Editing
p1441
I00
sVWon Best Music, Musical Picture
p1442
I00
sVNominated Best Foreign Language Film
p1443
I00
sVNominated Gordon E. Sawyer Award
p1444
I00
sVWon Best Short Subject, Color
p1445
I00
sVWon Best Short Film, Animated
p1446
I00
sVNominated Best Short Subject, Novelty
p1447
I00
sVNominated Best Makeup
p1448
I00
sVNominated Best Writing
p1449
I00
sVWon Best Picture
p1450
I00
sVNominated Best Costume Design, Color
p1451
I00
sVNominated Award of Commendation
p1452
I00
sVWon Best Actress
p1453
I00
sVNominated Medal of Commendation
p1454
I00
sVWon Best Makeup
p1455
I00
sVNominated Best Director, Drama
p1456
I00
sVWon Best Costume Design
p1457
I00
sVWon Best Writing, Adapted Screenplay
p1458
I00
sVWon Best Writing
p1459
I00
sVNominated Best Short Subject, Comedy
p1460
I00
sVWon Best Costume Design, Color
p1461
I00
sVNominated Best Visual Effects
p1462
I00
sVWon Best Sound Effects Editing
p1463
I00
sVWon Best Costume Design, Black-and-White
p1464
I00
sVNominated Best Supporting Actor
p1465
I00
sVWon Best Art Direction, Color
p1466
I00
sVNominated Best Documentary, Short Subject
p1467
I00
sVNominated Special Achievement Award
p1468
I00
sVWon Medal of Commendation
p1469
I00
sVWon Best Art Direction, Black-and-White
p1470
I00
sVWon Jean Hersholt Humanitarian Award
p1471
I00
sVWon Best Animated Feature Film
p1472
I00
sVWon Best Supporting Actor
p1473
I00
sVWon Best Special Visual Effects
p1474
I00
sVWon Best Short Subject, One-reel
p1475
I00
sVNominated Best Film Editing
p1476
I00
sVWon Best Sound Effects
p1477
I00
sVNominated Best Writing, Original Story
p1478
I00
sVNominated Best Cinematography, Black-and-White
p1479
I00
sg43
(lp1480
S'0019553'
p1481
aS'0033244'
p1482
aS'0713589'
p1483
aS'1392530'
p1484
aS'0796719'
p1485
aS'0926611'
p1486
aS'0536448'
p1487
asVWon Best Short Subject, Two-reel
p1488
I00
sg47
S'1927-1928'
p1489
sVWon Honorary Award
p1490
I00
sVWon Best Short Subject, Comedy
p1491
I00
sVWon Best Director, Comedy
p1492
I00
sVNominated Best Sound Recording
p1493
I00
sVNominated Best Cinematography
p1494
I00
sVWon Best Documentary, Feature
p1495
I00
sVNominated Best Short Film, Live Action
p1496
I00
sVWon Best Director
p1497
I00
sg57
(lp1498
g502
asg59
(lp1499
g1102
asVWon Best Music, Original Score
p1500
I00
sVWon Gordon E. Sawyer Award
p1501
I00
sVWon Best Short Subject, Cartoon
p1502
I00
sVWon Best Short Subject, Live Action
p1503
I00
sVWon Best Music, Dramatic Picture
p1504
I00
sVWon Best Documentary, Short Subject
p1505
I00
sVNominated Best Music, Song
p1506
I00
sVNominated Best Short Subject, One-reel
p1507
I00
sVWon Best Cinematography, Black-and-White
p1508
I00
sVWon Best Writing, Original Story
p1509
I00
sVNominated Best Supporting Actress
p1510
I00
sVNominated Best Special Visual Effects
p1511
I00
sVWon Best Music, Scoring
p1512
I00
sVWon Best Sound Mixing
p1513
I00
sVWon Award of Commendation
p1514
I00
sVNominated Best Music, Scoring
p1515
I00
sVNominated Best Picture
p1516
I00
sVNominated Best Sound Mixing
p1517
I00
sVWon Best Music, Dramatic Score
p1518
I00
sVWon Best Music, Adaptation / Original Song Score
p1519
I00
sVNominated Best Writing, Original Screenplay
p1520
I00
sVWon Best Writing, Title Writing
p1521
I00
sVWon Best Assistant Director
p1522
I00
sVNominated Best Sound Editing
p1523
I00
sVNominated Best Art Direction, Color
p1524
I00
sVNominated Best Assistant Director
p1525
I00
sVWon Best Sound Editing
p1526
I00
sVNominated Best Documentary
p1527
I00
sVWon Irving G. Thalberg Memorial Award
p1528
I00
sVNominated Best Dance Direction
p1529
I00
sVWon Best Unique and Artistic Picture
p1530
I00
sVNominated Best Short Subject, Color
p1531
I00
sVWon Best Short Subject, Novelty
p1532
I00
sVWon Best Music, Musical or Comedy Score
p1533
I00
sVNominated Best Short Subject, Two-reel
p1534
I00
sVNominated Best Art Direction, Black-and-White
p1535
I00
sVNominated Special Award
p1536
I00
sVNominated Best Music, Dramatic or Comedy Picture
p1537
I00
sVWon Best Dance Direction
p1538
I00
sVNominated Best Short Film, Animated
p1539
I00
sVNominated Best Animated Feature Film
p1540
I00
sVWon Best Sound Recording
p1541
I00
sVWon Best Short Subject, Animated
p1542
I00
sVNominated Best Writing, Title Writing
p1543
I00
sVNominated Best Music, Original Score
p1544
I00
sVWon Special Achievement Award
p1545
I00
sVNominated Best Director, Comedy
p1546
I00
sVNominated Best Costume Design, Black-and-White
p1547
I00
sVNominated Best Music, Dramatic Picture
p1548
I00
sVWon Best Visual Effects
p1549
I00
sg112
(lp1550
g114
(g115
g116
NtRp1551
(dp1552
g119
I00
sg120
g121
sg122
g1481
sg123
(dp1553
sg125
(lp1554
sg127
(dp1555
g129
Nsg130
Nsg131
Nsg132
Nsg133
Nsg134
Nsg135
Nsg136
Nsg137
Nsg138
Nsg139
Nsg140
Nsg141
Nsg142
Nssg143
V
sg144
(dp1556
sg146
V
sg147
(dp1557
sg149
g150
sg151
(dp1558
sg153
Nsg154
Nsg155
(dp1559
sg157
(dp1560
g159
g160
sg161
VThe Way of All Flesh
p1561
sg47
I1927
ssg163
g164
sbag114
(g115
g116
NtRp1562
(dp1563
g119
I00
sg120
g121
sg122
g1482
sg123
(dp1564
sg125
(lp1565
sg127
(dp1566
g129
Nsg130
Nsg131
Nsg132
Nsg133
Nsg134
Nsg135
Nsg136
Nsg137
Nsg138
Nsg139
Nsg140
Nsg141
Nsg142
Nssg143
V
sg144
(dp1567
sg146
V
sg147
(dp1568
sg149
g150
sg151
(dp1569
sg153
Nsg154
Nsg155
(dp1570
sg157
(dp1571
g159
g160
sg161
VThe Way of All Flesh
p1572
sg47
I1940
ssg163
g164
sbag114
(g115
g116
NtRp1573
(dp1574
g119
I00
sg120
g121
sg122
g1483
sg123
(dp1575
sg125
(lp1576
sg127
(dp1577
g129
Nsg130
Nsg131
Nsg132
Nsg133
Nsg134
Nsg135
Nsg136
Nsg137
Nsg138
Nsg139
Nsg140
Nsg141
Nsg142
Nssg143
V
sg144
(dp1578
sg146
V
sg147
(dp1579
sg149
g150
sg151
(dp1580
sg153
Nsg154
Nsg155
(dp1581
sg157
(dp1582
g994
VSuperman
p1583
sg159
g996
sg161
VThe Way of All Flesh
p1584
sg998
I1996
sg47
I1996
ssg163
g164
sbag114
(g115
g116
NtRp1585
(dp1586
g119
I00
sg120
g121
sg122
g1484
sg123
(dp1587
sg125
(lp1588
sg127
(dp1589
g129
Nsg130
Nsg131
Nsg132
Nsg133
Nsg134
Nsg135
Nsg136
Nsg137
Nsg138
Nsg139
Nsg140
Nsg141
Nsg142
Nssg143
V
sg144
(dp1590
sg146
V
sg147
(dp1591
sg149
g150
sg151
(dp1592
sg153
Nsg154
Nsg155
(dp1593
sg157
(dp1594
g994
VConjugal Rites
p1595
sg159
g996
sg161
VThe Way of All Flesh
p1596
sg998
I1993
sg47
I1994
ssg163
g164
sbag114
(g115
g116
NtRp1597
(dp1598
g119
I00
sg120
g121
sg122
g1485
sg123
(dp1599
sg125
(lp1600
sg127
(dp1601
g129
Nsg130
Nsg131
Nsg132
Nsg133
Nsg134
Nsg135
Nsg136
Nsg137
Nsg138
Nsg139
Nsg140
Nsg141
Nsg142
Nssg143
V
sg144
(dp1602
sg146
V
sg147
(dp1603
sg149
g150
sg151
(dp1604
sg153
Nsg154
Nsg155
(dp1605
sg157
(dp1606
g994
VModern Times
p1607
sg159
g996
sg161
VThe Way of All Flesh
p1608
sg998
I1995
sg47
I1997
ssg163
g164
sbag114
(g115
g116
NtRp1609
(dp1610
g119
I00
sg120
g121
sg122
g1486
sg123
(dp1611
sg125
(lp1612
sg127
(dp1613
g129
Nsg130
Nsg131
Nsg132
Nsg133
Nsg134
Nsg135
Nsg136
Nsg137
Nsg138
Nsg139
Nsg140
Nsg141
Nsg142
Nssg143
V
sg144
(dp1614
sg146
V
sg147
(dp1615
sg149
g150
sg151
(dp1616
sg153
Nsg154
Nsg155
(dp1617
sg157
(dp1618
g994
VITV Play of the Week
p1619
sg159
g996
sg161
VThe Way of All Flesh
p1620
sg998
I1955
sg47
I1965
ssg163
g164
sbag114
(g115
g116
NtRp1621
(dp1622
g119
I00
sg120
g121
sg122
g1487
sg123
(dp1623
sg125
(lp1624
sg127
(dp1625
g129
Nsg130
Nsg131
Nsg132
Nsg133
Nsg134
Nsg135
Nsg136
Nsg137
Nsg138
Nsg139
Nsg140
Nsg141
Nsg142
Nssg143
V
sg144
(dp1626
sg146
V
sg147
(dp1627
sg149
g150
sg151
(dp1628
sg153
Nsg154
Nsg155
(dp1629
sg157
(dp1630
g994
VCardiac Arrest
p1631
sg159
g996
sg161
VThe Way of All Flesh
p1632
sg998
I1994
sg47
I1996
ssg163
g164
sbasg165
(lp1633
g502
asVWon Best Special Effects
p1634
I00
sVWon Best Music, Song
p1635
I00
sVNominated Best Director
p1636
I00
sVWon Best Supporting Actress
p1637
I00
sVNominated Best Sound Effects
p1638
I00
sVWon Best Actor
p1639
I01
sVNominated Best Documentary, Feature
p1640
I00
sVNominated Best Short Subject, Animated
p1641
I00
sVNominated Best Engineering Effects
p1642
I00
sVNominated Best Special Effects
p1643
I00
sVWon Best Art Direction
p1644
I00
sVWon Best Director, Drama
p1645
I00
sVNominated Best Costume Design
p1646
I00
sVWon Best Writing, Original Screenplay
p1647
I00
sVNominated Best Music, Adaptation / Original Song Score
p1648
I00
sVNominated Best Unique and Artistic Picture
p1649
I00
sVWon Best Foreign Language Film
p1650
I00
sVNominated Best Sound
p1651
I00
sVNominated Best Cinematography, Color
p1652
I00
sVWon Best Cinematography, Color
p1653
I00
sVWon Best Short Film, Live Action
p1654
I00
sVWon Best Music, Dramatic or Comedy Picture
p1655
I00
sVNominated Best Music, Dramatic Score
p1656
I00
sVNominated Best Music, Musical or Comedy Score
p1657
I00
sVWon Best Film Editing
p1658
I00
sVNominated Best Music, Musical Picture
p1659
I00
sVNominated Irving G. Thalberg Memorial Award
p1660
I00
sVNominated Best Art Direction
p1661
I00
sVNominated Honorary Award
p1662
I00
sVNominated Best Short Subject, Cartoon
p1663
I00
sg198
VThe Way of All Flesh (1927)
p1664
sVWon Best Engineering Effects
p1665
I00
sVNominated Best Actor
p1666
I01
sVWon Best Cinematography
p1667
I00
sVNominated Best Actress
p1668
I00
sVNominated Best Writing, Adapted Screenplay
p1669
I00
sVWon Best Sound
p1670
I00
sVNominated Best Short Subject, Live Action
p1671
I00
sVNominated Jean Hersholt Humanitarian Award
p1672
I00
sVWon Best Documentary
p1673
I00
sVWon Special Award
p1674
I00
ssVThe Noose
p1675
(dp1676
VNominated Best Sound Effects Editing
p1677
I00
sVWon Best Music, Musical Picture
p1678
I00
sVNominated Best Foreign Language Film
p1679
I00
sVNominated Gordon E. Sawyer Award
p1680
I00
sVWon Best Short Subject, Color
p1681
I00
sVWon Best Short Film, Animated
p1682
I00
sVNominated Best Short Subject, Novelty
p1683
I00
sVNominated Best Makeup
p1684
I00
sVNominated Best Writing
p1685
I00
sVWon Best Picture
p1686
I00
sVNominated Best Costume Design, Color
p1687
I00
sVNominated Award of Commendation
p1688
I00
sVWon Best Actress
p1689
I00
sVNominated Medal of Commendation
p1690
I00
sVWon Best Makeup
p1691
I00
sVNominated Best Director, Drama
p1692
I00
sVWon Best Costume Design
p1693
I00
sVWon Best Writing, Adapted Screenplay
p1694
I00
sVWon Best Writing
p1695
I00
sVNominated Best Short Subject, Comedy
p1696
I00
sVWon Best Costume Design, Color
p1697
I00
sVNominated Best Visual Effects
p1698
I00
sVWon Best Sound Effects Editing
p1699
I00
sVWon Best Costume Design, Black-and-White
p1700
I00
sVNominated Best Supporting Actor
p1701
I00
sVWon Best Art Direction, Color
p1702
I00
sVNominated Best Documentary, Short Subject
p1703
I00
sVNominated Special Achievement Award
p1704
I00
sVWon Medal of Commendation
p1705
I00
sVWon Best Art Direction, Black-and-White
p1706
I00
sVWon Jean Hersholt Humanitarian Award
p1707
I00
sVWon Best Animated Feature Film
p1708
I00
sVWon Best Supporting Actor
p1709
I00
sVWon Best Special Visual Effects
p1710
I00
sVWon Best Short Subject, One-reel
p1711
I00
sVNominated Best Film Editing
p1712
I00
sVWon Best Sound Effects
p1713
I00
sVNominated Best Writing, Original Story
p1714
I00
sVNominated Best Cinematography, Black-and-White
p1715
I00
sg43
(lp1716
sVWon Best Short Subject, Two-reel
p1717
I00
sg47
S'1927-1928'
p1718
sVWon Honorary Award
p1719
I00
sVWon Best Short Subject, Comedy
p1720
I00
sVWon Best Director, Comedy
p1721
I00
sVNominated Best Sound Recording
p1722
I00
sVNominated Best Cinematography
p1723
I00
sVWon Best Documentary, Feature
p1724
I00
sVNominated Best Short Film, Live Action
p1725
I00
sVWon Best Director
p1726
I00
sg57
(lp1727
sg59
(lp1728
g438
asVWon Best Music, Original Score
p1729
I00
sVWon Gordon E. Sawyer Award
p1730
I00
sVWon Best Short Subject, Cartoon
p1731
I00
sVWon Best Short Subject, Live Action
p1732
I00
sVWon Best Music, Dramatic Picture
p1733
I00
sVWon Best Documentary, Short Subject
p1734
I00
sVNominated Best Music, Song
p1735
I00
sVNominated Best Short Subject, One-reel
p1736
I00
sVWon Best Cinematography, Black-and-White
p1737
I00
sVWon Best Writing, Original Story
p1738
I00
sVNominated Best Supporting Actress
p1739
I00
sVNominated Best Special Visual Effects
p1740
I00
sVWon Best Music, Scoring
p1741
I00
sVWon Best Sound Mixing
p1742
I00
sVWon Award of Commendation
p1743
I00
sVNominated Best Music, Scoring
p1744
I00
sVNominated Best Picture
p1745
I00
sVNominated Best Sound Mixing
p1746
I00
sVWon Best Music, Dramatic Score
p1747
I00
sVWon Best Music, Adaptation / Original Song Score
p1748
I00
sVNominated Best Writing, Original Screenplay
p1749
I00
sVWon Best Writing, Title Writing
p1750
I00
sVWon Best Assistant Director
p1751
I00
sVNominated Best Sound Editing
p1752
I00
sVNominated Best Art Direction, Color
p1753
I00
sVNominated Best Assistant Director
p1754
I00
sVWon Best Sound Editing
p1755
I00
sVNominated Best Documentary
p1756
I00
sVWon Irving G. Thalberg Memorial Award
p1757
I00
sVNominated Best Dance Direction
p1758
I00
sVWon Best Unique and Artistic Picture
p1759
I00
sVNominated Best Short Subject, Color
p1760
I00
sVWon Best Short Subject, Novelty
p1761
I00
sVWon Best Music, Musical or Comedy Score
p1762
I00
sVNominated Best Short Subject, Two-reel
p1763
I00
sVNominated Best Art Direction, Black-and-White
p1764
I00
sVNominated Special Award
p1765
I00
sVNominated Best Music, Dramatic or Comedy Picture
p1766
I00
sVWon Best Dance Direction
p1767
I00
sVNominated Best Short Film, Animated
p1768
I00
sVNominated Best Animated Feature Film
p1769
I00
sVWon Best Sound Recording
p1770
I00
sVWon Best Short Subject, Animated
p1771
I00
sVNominated Best Writing, Title Writing
p1772
I00
sVNominated Best Music, Original Score
p1773
I00
sVWon Special Achievement Award
p1774
I00
sVNominated Best Director, Comedy
p1775
I00
sVNominated Best Costume Design, Black-and-White
p1776
I00
sVNominated Best Music, Dramatic Picture
p1777
I00
sVWon Best Visual Effects
p1778
I00
sg112
(lp1779
sg165
(lp1780
g502
asVWon Best Special Effects
p1781
I00
sVWon Best Music, Song
p1782
I00
sVNominated Best Director
p1783
I00
sVWon Best Supporting Actress
p1784
I00
sVNominated Best Sound Effects
p1785
I00
sVWon Best Actor
p1786
I00
sVNominated Best Documentary, Feature
p1787
I00
sVNominated Best Short Subject, Animated
p1788
I00
sVNominated Best Engineering Effects
p1789
I00
sVNominated Best Special Effects
p1790
I00
sVWon Best Art Direction
p1791
I00
sVWon Best Director, Drama
p1792
I00
sVNominated Best Costume Design
p1793
I00
sVWon Best Writing, Original Screenplay
p1794
I00
sVNominated Best Music, Adaptation / Original Song Score
p1795
I00
sVNominated Best Unique and Artistic Picture
p1796
I00
sVWon Best Foreign Language Film
p1797
I00
sVNominated Best Sound
p1798
I00
sVNominated Best Cinematography, Color
p1799
I00
sVWon Best Cinematography, Color
p1800
I00
sVWon Best Short Film, Live Action
p1801
I00
sVWon Best Music, Dramatic or Comedy Picture
p1802
I00
sVNominated Best Music, Dramatic Score
p1803
I00
sVNominated Best Music, Musical or Comedy Score
p1804
I00
sVWon Best Film Editing
p1805
I00
sVNominated Best Music, Musical Picture
p1806
I00
sVNominated Irving G. Thalberg Memorial Award
p1807
I00
sVNominated Best Art Direction
p1808
I00
sVNominated Honorary Award
p1809
I00
sVNominated Best Short Subject, Cartoon
p1810
I00
sg198
VThe Noose (1927)
p1811
sVWon Best Engineering Effects
p1812
I00
sVNominated Best Actor
p1813
I01
sVWon Best Cinematography
p1814
I00
sVNominated Best Actress
p1815
I00
sVNominated Best Writing, Adapted Screenplay
p1816
I00
sVWon Best Sound
p1817
I00
sVNominated Best Short Subject, Live Action
p1818
I00
sVNominated Jean Hersholt Humanitarian Award
p1819
I00
sVWon Best Documentary
p1820
I00
sVWon Special Award
p1821
I00
ssVStreet Angel
p1822
(dp1823
VNominated Best Sound Effects Editing
p1824
I00
sVWon Best Music, Musical Picture
p1825
I00
sVNominated Best Foreign Language Film
p1826
I00
sVNominated Gordon E. Sawyer Award
p1827
I00
sVWon Best Short Subject, Color
p1828
I00
sVWon Best Short Film, Animated
p1829
I00
sVNominated Best Short Subject, Novelty
p1830
I00
sVNominated Best Makeup
p1831
I00
sVNominated Best Writing
p1832
I00
sVWon Best Picture
p1833
I00
sVNominated Best Costume Design, Color
p1834
I00
sVNominated Award of Commendation
p1835
I00
sVWon Best Actress
p1836
I01
sVNominated Medal of Commendation
p1837
I00
sVWon Best Makeup
p1838
I00
sVNominated Best Director, Drama
p1839
I00
sVWon Best Costume Design
p1840
I00
sVWon Best Writing, Adapted Screenplay
p1841
I00
sVWon Best Writing
p1842
I00
sVNominated Best Short Subject, Comedy
p1843
I00
sVWon Best Costume Design, Color
p1844
I00
sVNominated Best Visual Effects
p1845
I00
sVWon Best Sound Effects Editing
p1846
I00
sVWon Best Costume Design, Black-and-White
p1847
I00
sVNominated Best Supporting Actor
p1848
I00
sVWon Best Art Direction, Color
p1849
I00
sVNominated Best Documentary, Short Subject
p1850
I00
sVNominated Special Achievement Award
p1851
I00
sVWon Medal of Commendation
p1852
I00
sVWon Best Art Direction, Black-and-White
p1853
I00
sVWon Jean Hersholt Humanitarian Award
p1854
I00
sVWon Best Animated Feature Film
p1855
I00
sVWon Best Supporting Actor
p1856
I00
sVWon Best Special Visual Effects
p1857
I00
sVWon Best Short Subject, One-reel
p1858
I00
sVNominated Best Film Editing
p1859
I00
sVWon Best Sound Effects
p1860
I00
sVNominated Best Writing, Original Story
p1861
I00
sVNominated Best Cinematography, Black-and-White
p1862
I00
sg43
(lp1863
S'0019429'
p1864
aS'0178917'
p1865
aS'1381290'
p1866
aS'3843240'
p1867
aS'4899314'
p1868
aS'1249188'
p1869
aS'0029558'
p1870
aS'2265361'
p1871
aS'4651860'
p1872
asVWon Best Short Subject, Two-reel
p1873
I00
sg47
S'1927-1928'
p1874
sVWon Honorary Award
p1875
I00
sVWon Best Short Subject, Comedy
p1876
I00
sVWon Best Director, Comedy
p1877
I00
sVNominated Best Sound Recording
p1878
I00
sVNominated Best Cinematography
p1879
I00
sVWon Best Documentary, Feature
p1880
I00
sVNominated Best Short Film, Live Action
p1881
I00
sVWon Best Director
p1882
I00
sg57
(lp1883
g167
asg59
(lp1884
g1334
asVWon Best Music, Original Score
p1885
I00
sVWon Gordon E. Sawyer Award
p1886
I00
sVWon Best Short Subject, Cartoon
p1887
I00
sVWon Best Short Subject, Live Action
p1888
I00
sVWon Best Music, Dramatic Picture
p1889
I00
sVWon Best Documentary, Short Subject
p1890
I00
sVNominated Best Music, Song
p1891
I00
sVNominated Best Short Subject, One-reel
p1892
I00
sVWon Best Cinematography, Black-and-White
p1893
I00
sVWon Best Writing, Original Story
p1894
I00
sVNominated Best Supporting Actress
p1895
I00
sVNominated Best Special Visual Effects
p1896
I00
sVWon Best Music, Scoring
p1897
I00
sVWon Best Sound Mixing
p1898
I00
sVWon Award of Commendation
p1899
I00
sVNominated Best Music, Scoring
p1900
I00
sVNominated Best Picture
p1901
I00
sVNominated Best Sound Mixing
p1902
I00
sVWon Best Music, Dramatic Score
p1903
I00
sVWon Best Music, Adaptation / Original Song Score
p1904
I00
sVNominated Best Writing, Original Screenplay
p1905
I00
sVWon Best Writing, Title Writing
p1906
I00
sVWon Best Assistant Director
p1907
I00
sVNominated Best Sound Editing
p1908
I00
sVNominated Best Art Direction, Color
p1909
I00
sVNominated Best Assistant Director
p1910
I00
sVWon Best Sound Editing
p1911
I00
sVNominated Best Documentary
p1912
I00
sVWon Irving G. Thalberg Memorial Award
p1913
I00
sVNominated Best Dance Direction
p1914
I00
sVWon Best Unique and Artistic Picture
p1915
I00
sVNominated Best Short Subject, Color
p1916
I00
sVWon Best Short Subject, Novelty
p1917
I00
sVWon Best Music, Musical or Comedy Score
p1918
I00
sVNominated Best Short Subject, Two-reel
p1919
I00
sVNominated Best Art Direction, Black-and-White
p1920
I00
sVNominated Special Award
p1921
I00
sVNominated Best Music, Dramatic or Comedy Picture
p1922
I00
sVWon Best Dance Direction
p1923
I00
sVNominated Best Short Film, Animated
p1924
I00
sVNominated Best Animated Feature Film
p1925
I00
sVWon Best Sound Recording
p1926
I00
sVWon Best Short Subject, Animated
p1927
I00
sVNominated Best Writing, Title Writing
p1928
I00
sVNominated Best Music, Original Score
p1929
I00
sVWon Special Achievement Award
p1930
I00
sVNominated Best Director, Comedy
p1931
I00
sVNominated Best Costume Design, Black-and-White
p1932
I00
sVNominated Best Music, Dramatic Picture
p1933
I00
sVWon Best Visual Effects
p1934
I00
sg112
(lp1935
g114
(g115
g116
NtRp1936
(dp1937
g119
I00
sg120
g121
sg122
g1864
sg123
(dp1938
sg125
(lp1939
sg127
(dp1940
g129
Nsg130
Nsg131
Nsg132
Nsg133
Nsg134
Nsg135
Nsg136
Nsg137
Nsg138
Nsg139
Nsg140
Nsg141
Nsg142
Nssg143
V
sg144
(dp1941
sg146
V
sg147
(dp1942
sg149
g150
sg151
(dp1943
sg153
Nsg154
Nsg155
(dp1944
sg157
(dp1945
g159
g160
sg161
VStreet Angel
p1946
sg47
I1928
ssg163
g164
sbag114
(g115
g116
NtRp1947
(dp1948
g119
I00
sg120
g121
sg122
g1865
sg123
(dp1949
sg125
(lp1950
sg127
(dp1951
g129
Nsg130
Nsg131
Nsg132
Nsg133
Nsg134
Nsg135
Nsg136
Nsg137
Nsg138
Nsg139
Nsg140
Nsg141
Nsg142
Nssg143
V
sg144
(dp1952
sg146
V
sg147
(dp1953
sg149
g150
sg151
(dp1954
sg153
Nsg154
Nsg155
(dp1955
sg157
(dp1956
g159
Vvideo movie
p1957
sg161
VStreet Angels
p1958
sg47
I1993
ssg163
g164
sbag114
(g115
g116
NtRp1959
(dp1960
g119
I00
sg120
g121
sg122
g1866
sg123
(dp1961
sg125
(lp1962
sg127
(dp1963
g129
Nsg130
Nsg131
Nsg132
Nsg133
Nsg134
Nsg135
Nsg136
Nsg137
Nsg138
Nsg139
Nsg140
Nsg141
Nsg142
Nssg143
V
sg144
(dp1964
sg146
V
sg147
(dp1965
sg149
g150
sg151
(dp1966
sg153
Nsg154
Nsg155
(dp1967
sg157
(dp1968
g159
g160
sg161
VStreet Angel
p1969
sg47
I2009
ssg163
g164
sbag114
(g115
g116
NtRp1970
(dp1971
g119
I00
sg120
g121
sg122
g1867
sg123
(dp1972
sg125
(lp1973
sg127
(dp1974
g129
Nsg130
Nsg131
Nsg132
Nsg133
Nsg134
Nsg135
Nsg136
Nsg137
Nsg138
Nsg139
Nsg140
Nsg141
Nsg142
Nssg143
V
sg144
(dp1975
sg146
V
sg147
(dp1976
sg149
g150
sg151
(dp1977
sg153
Nsg154
Nsg155
(dp1978
sg157
(dp1979
g159
g160
sg161
VStreet Angel
p1980
sg47
I2014
ssg163
g164
sbag114
(g115
g116
NtRp1981
(dp1982
g119
I00
sg120
g121
sg122
g1868
sg123
(dp1983
sg125
(lp1984
sg127
(dp1985
g129
Nsg130
Nsg131
Nsg132
Nsg133
Nsg134
Nsg135
Nsg136
Nsg137
Nsg138
Nsg139
Nsg140
Nsg141
Nsg142
Nssg143
V
sg144
(dp1986
sg146
V
sg147
(dp1987
sg149
g150
sg151
(dp1988
sg153
Nsg154
Nsg155
(dp1989
sg157
(dp1990
g159
g160
sg161
VStreet Angel (in development)
p1991
ssg163
g164
sbag114
(g115
g116
NtRp1992
(dp1993
g119
I00
sg120
g121
sg122
g1869
sg123
(dp1994
sg125
(lp1995
sg127
(dp1996
g129
Nsg130
Nsg131
Nsg132
Nsg133
Nsg134
Nsg135
Nsg136
Nsg137
Nsg138
Nsg139
Nsg140
Nsg141
Nsg142
Nssg143
V
sg144
(dp1997
sg146
V
sg147
(dp1998
sg149
g150
sg151
(dp1999
sg153
Nsg154
Nsg155
(dp2000
sg157
(dp2001
g159
g160
sg161
VStreet Angels
p2002
sg47
I2006
ssg163
g164
sbag114
(g115
g116
NtRp2003
(dp2004
g119
I00
sg120
g121
sg122
g1870
sg123
(dp2005
sg125
(lp2006
sg127
(dp2007
g129
Nsg130
Nsg131
Nsg132
Nsg133
Nsg134
Nsg135
Nsg136
Nsg137
Nsg138
Nsg139
Nsg140
Nsg141
Nsg142
Nssg143
V
sg144
(dp2008
sg146
V
sg147
(dp2009
sg149
g150
sg151
(dp2010
sg153
Nsg154
Nsg155
(dp2011
sg157
(dp2012
g159
g160
sg161
VSide Street Angel
p2013
sg47
I1937
ssg163
g164
sbag114
(g115
g116
NtRp2014
(dp2015
g119
I00
sg120
g121
sg122
g1871
sg123
(dp2016
sg125
(lp2017
sg127
(dp2018
g129
Nsg130
Nsg131
Nsg132
Nsg133
Nsg134
Nsg135
Nsg136
Nsg137
Nsg138
Nsg139
Nsg140
Nsg141
Nsg142
Nssg143
V
sg144
(dp2019
sg146
V
sg147
(dp2020
sg149
g150
sg151
(dp2021
sg153
Nsg154
Nsg155
(dp2022
sg157
(dp2023
g159
g1957
sg161
VHouse Devil, Street Angel
p2024
sg47
I2012
ssg163
g164
sbag114
(g115
g116
NtRp2025
(dp2026
g119
I00
sg120
g121
sg122
g1872
sg123
(dp2027
sg125
(lp2028
sg127
(dp2029
g129
Nsg130
Nsg131
Nsg132
Nsg133
Nsg134
Nsg135
Nsg136
Nsg137
Nsg138
Nsg139
Nsg140
Nsg141
Nsg142
Nssg143
V
sg144
(dp2030
sg146
V
sg147
(dp2031
sg149
g150
sg151
(dp2032
sg153
Nsg154
Nsg155
(dp2033
sg157
(dp2034
g994
VPARIS in LA
p2035
sg159
g996
sg161
VPositivity - LA Street Angel
p2036
sg998
I2013
sg47
I2013
ssg163
g164
sbasg165
(lp2037
g167
asVWon Best Special Effects
p2038
I00
sVWon Best Music, Song
p2039
I00
sVNominated Best Director
p2040
I00
sVWon Best Supporting Actress
p2041
I00
sVNominated Best Sound Effects
p2042
I00
sVWon Best Actor
p2043
I00
sVNominated Best Documentary, Feature
p2044
I00
sVNominated Best Short Subject, Animated
p2045
I00
sVNominated Best Engineering Effects
p2046
I00
sVNominated Best Special Effects
p2047
I00
sVWon Best Art Direction
p2048
I00
sVWon Best Director, Drama
p2049
I00
sVNominated Best Costume Design
p2050
I00
sVWon Best Writing, Original Screenplay
p2051
I00
sVNominated Best Music, Adaptation / Original Song Score
p2052
I00
sVNominated Best Unique and Artistic Picture
p2053
I00
sVWon Best Foreign Language Film
p2054
I00
sVNominated Best Sound
p2055
I00
sVNominated Best Cinematography, Color
p2056
I00
sVWon Best Cinematography, Color
p2057
I00
sVWon Best Short Film, Live Action
p2058
I00
sVWon Best Music, Dramatic or Comedy Picture
p2059
I00
sVNominated Best Music, Dramatic Score
p2060
I00
sVNominated Best Music, Musical or Comedy Score
p2061
I00
sVWon Best Film Editing
p2062
I00
sVNominated Best Music, Musical Picture
p2063
I00
sVNominated Irving G. Thalberg Memorial Award
p2064
I00
sVNominated Best Art Direction
p2065
I00
sVNominated Honorary Award
p2066
I00
sVNominated Best Short Subject, Cartoon
p2067
I00
sg198
VStreet Angel (1927)
p2068
sVWon Best Engineering Effects
p2069
I00
sVNominated Best Actor
p2070
I00
sVWon Best Cinematography
p2071
I00
sVNominated Best Actress
p2072
I01
sVNominated Best Writing, Adapted Screenplay
p2073
I00
sVWon Best Sound
p2074
I00
sVNominated Best Short Subject, Live Action
p2075
I00
sVNominated Jean Hersholt Humanitarian Award
p2076
I00
sVWon Best Documentary
p2077
I00
sVWon Special Award
p2078
I00
ssVWings
p2079
(dp2080
VNominated Best Sound Effects Editing
p2081
I00
sVWon Best Music, Musical Picture
p2082
I00
sVNominated Best Foreign Language Film
p2083
I00
sVNominated Gordon E. Sawyer Award
p2084
I00
sVWon Best Short Subject, Color
p2085
I00
sVWon Best Short Film, Animated
p2086
I00
sVNominated Best Short Subject, Novelty
p2087
I00
sVNominated Best Makeup
p2088
I00
sVNominated Best Writing
p2089
I00
sVWon Best Picture
p2090
I01
sVNominated Best Costume Design, Color
p2091
I00
sVNominated Award of Commendation
p2092
I00
sVWon Best Actress
p2093
I00
sVNominated Medal of Commendation
p2094
I00
sVWon Best Makeup
p2095
I00
sVNominated Best Director, Drama
p2096
I00
sVWon Best Costume Design
p2097
I00
sVWon Best Writing, Adapted Screenplay
p2098
I00
sVWon Best Writing
p2099
I00
sVNominated Best Short Subject, Comedy
p2100
I00
sVWon Best Costume Design, Color
p2101
I00
sVNominated Best Visual Effects
p2102
I00
sVWon Best Sound Effects Editing
p2103
I00
sVWon Best Costume Design, Black-and-White
p2104
I00
sVNominated Best Supporting Actor
p2105
I00
sVWon Best Art Direction, Color
p2106
I00
sVNominated Best Documentary, Short Subject
p2107
I00
sVNominated Special Achievement Award
p2108
I00
sVWon Medal of Commendation
p2109
I00
sVWon Best Art Direction, Black-and-White
p2110
I00
sVWon Jean Hersholt Humanitarian Award
p2111
I00
sVWon Best Animated Feature Film
p2112
I00
sVWon Best Supporting Actor
p2113
I00
sVWon Best Special Visual Effects
p2114
I00
sVWon Best Short Subject, One-reel
p2115
I00
sVNominated Best Film Editing
p2116
I00
sVWon Best Sound Effects
p2117
I00
sVNominated Best Writing, Original Story
p2118
I00
sVNominated Best Cinematography, Black-and-White
p2119
I00
sg43
(lp2120
S'0018578'
p2121
aS'5072580'
p2122
aS'2919420'
p2123
aS'1032209'
p2124
aS'1031686'
p2125
aS'1031719'
p2126
aS'0247052'
p2127
asVWon Best Short Subject, Two-reel
p2128
I00
sg47
S'1927-1928'
p2129
sVWon Honorary Award
p2130
I00
sVWon Best Short Subject, Comedy
p2131
I00
sVWon Best Director, Comedy
p2132
I00
sVNominated Best Sound Recording
p2133
I00
sVNominated Best Cinematography
p2134
I00
sVWon Best Documentary, Feature
p2135
I00
sVNominated Best Short Film, Live Action
p2136
I00
sVWon Best Director
p2137
I00
sg57
(lp2138
g811
asg59
(lp2139
g599
asVWon Best Music, Original Score
p2140
I00
sVWon Gordon E. Sawyer Award
p2141
I00
sVWon Best Short Subject, Cartoon
p2142
I00
sVWon Best Short Subject, Live Action
p2143
I00
sVWon Best Music, Dramatic Picture
p2144
I00
sVWon Best Documentary, Short Subject
p2145
I00
sVNominated Best Music, Song
p2146
I00
sVNominated Best Short Subject, One-reel
p2147
I00
sVWon Best Cinematography, Black-and-White
p2148
I00
sVWon Best Writing, Original Story
p2149
I00
sVNominated Best Supporting Actress
p2150
I00
sVNominated Best Special Visual Effects
p2151
I00
sVWon Best Music, Scoring
p2152
I00
sVWon Best Sound Mixing
p2153
I00
sVWon Award of Commendation
p2154
I00
sVNominated Best Music, Scoring
p2155
I00
sVNominated Best Picture
p2156
I01
sVNominated Best Sound Mixing
p2157
I00
sVWon Best Music, Dramatic Score
p2158
I00
sVWon Best Music, Adaptation / Original Song Score
p2159
I00
sVNominated Best Writing, Original Screenplay
p2160
I00
sVWon Best Writing, Title Writing
p2161
I00
sVWon Best Assistant Director
p2162
I00
sVNominated Best Sound Editing
p2163
I00
sVNominated Best Art Direction, Color
p2164
I00
sVNominated Best Assistant Director
p2165
I00
sVWon Best Sound Editing
p2166
I00
sVNominated Best Documentary
p2167
I00
sVWon Irving G. Thalberg Memorial Award
p2168
I00
sVNominated Best Dance Direction
p2169
I00
sVWon Best Unique and Artistic Picture
p2170
I00
sVNominated Best Short Subject, Color
p2171
I00
sVWon Best Short Subject, Novelty
p2172
I00
sVWon Best Music, Musical or Comedy Score
p2173
I00
sVNominated Best Short Subject, Two-reel
p2174
I00
sVNominated Best Art Direction, Black-and-White
p2175
I00
sVNominated Special Award
p2176
I00
sVNominated Best Music, Dramatic or Comedy Picture
p2177
I00
sVWon Best Dance Direction
p2178
I00
sVNominated Best Short Film, Animated
p2179
I00
sVNominated Best Animated Feature Film
p2180
I00
sVWon Best Sound Recording
p2181
I00
sVWon Best Short Subject, Animated
p2182
I00
sVNominated Best Writing, Title Writing
p2183
I00
sVNominated Best Music, Original Score
p2184
I00
sVWon Special Achievement Award
p2185
I00
sVNominated Best Director, Comedy
p2186
I00
sVNominated Best Costume Design, Black-and-White
p2187
I00
sVNominated Best Music, Dramatic Picture
p2188
I00
sVWon Best Visual Effects
p2189
I00
sg112
(lp2190
g114
(g115
g116
NtRp2191
(dp2192
g119
I00
sg120
g121
sg122
g2121
sg123
(dp2193
sg125
(lp2194
sg127
(dp2195
g129
Nsg130
Nsg131
Nsg132
Nsg133
Nsg134
Nsg135
Nsg136
Nsg137
Nsg138
Nsg139
Nsg140
Nsg141
Nsg142
Nssg143
V
sg144
(dp2196
sg146
V
sg147
(dp2197
sg149
g150
sg151
(dp2198
sg153
Nsg154
Nsg155
(dp2199
sg157
(dp2200
g159
g160
sg161
VWings
p2201
sg47
I1927
ssg163
g164
sbag114
(g115
g116
NtRp2202
(dp2203
g119
I00
sg120
g121
sg122
g2122
sg123
(dp2204
sg125
(lp2205
sg127
(dp2206
g129
Nsg130
Nsg131
Nsg132
Nsg133
Nsg134
Nsg135
Nsg136
Nsg137
Nsg138
Nsg139
Nsg140
Nsg141
Nsg142
Nssg143
V
sg144
(dp2207
sg146
V
sg147
(dp2208
sg149
g150
sg151
(dp2209
sg153
Nsg154
Nsg155
(dp2210
sg157
(dp2211
g159
Vtv mini series
p2212
sg161
VGradual Beginnings 1889 - 1927 (2015) (TV Episode) - Hitler: Germany's Fatal Attraction
p2213
sg47
I2015
ssg163
g164
sbag114
(g115
g116
NtRp2214
(dp2215
g119
I00
sg120
g121
sg122
g2123
sg123
(dp2216
sg125
(lp2217
sg127
(dp2218
g129
Nsg130
Nsg131
Nsg132
Nsg133
Nsg134
Nsg135
Nsg136
Nsg137
Nsg138
Nsg139
Nsg140
Nsg141
Nsg142
Nssg143
V
sg144
(dp2219
sg146
V
sg147
(dp2220
sg149
g150
sg151
(dp2221
sg153
Nsg154
Nsg155
(dp2222
sg157
(dp2223
g994
VNHL Regular Season
p2224
sg159
g996
sg161
VDallas Stars at Detroit Red Wings, 19 May 2008
p2225
sg998
I2007
sg47
I2008
ssg163
g164
sbag114
(g115
g116
NtRp2226
(dp2227
g119
I00
sg120
g121
sg122
g2124
sg123
(dp2228
sg125
(lp2229
sg127
(dp2230
g129
Nsg130
Nsg131
Nsg132
Nsg133
Nsg134
Nsg135
Nsg136
Nsg137
Nsg138
Nsg139
Nsg140
Nsg141
Nsg142
Nssg143
V
sg144
(dp2231
sg146
V
sg147
(dp2232
sg149
g150
sg151
(dp2233
sg153
Nsg154
Nsg155
(dp2234
sg157
(dp2235
g159
g160
sg161
VMany Wings
p2236
sg47
I1927
ssg163
g164
sbag114
(g115
g116
NtRp2237
(dp2238
g119
I00
sg120
g121
sg122
g2125
sg123
(dp2239
sg125
(lp2240
sg127
(dp2241
g129
Nsg130
Nsg131
Nsg132
Nsg133
Nsg134
Nsg135
Nsg136
Nsg137
Nsg138
Nsg139
Nsg140
Nsg141
Nsg142
Nssg143
V
sg144
(dp2242
sg146
V
sg147
(dp2243
sg149
g150
sg151
(dp2244
sg153
Nsg154
Nsg155
(dp2245
sg157
(dp2246
g159
g160
sg161
VSoaring Wings
p2247
sg47
I1927
ssg163
g164
sbag114
(g115
g116
NtRp2248
(dp2249
g119
I00
sg120
g121
sg122
g2126
sg123
(dp2250
sg125
(lp2251
sg127
(dp2252
g129
Nsg130
Nsg131
Nsg132
Nsg133
Nsg134
Nsg135
Nsg136
Nsg137
Nsg138
Nsg139
Nsg140
Nsg141
Nsg142
Nssg143
V
sg144
(dp2253
sg146
V
sg147
(dp2254
sg149
g150
sg151
(dp2255
sg153
Nsg154
Nsg155
(dp2256
sg157
(dp2257
g159
g160
sg161
VWinged Death
p2258
sg47
I1927
ssg163
g164
sbag114
(g115
g116
NtRp2259
(dp2260
g119
I00
sg120
g121
sg122
g2127
sg123
(dp2261
sg125
(lp2262
sg127
(dp2263
g129
Nsg130
Nsg131
Nsg132
Nsg133
Nsg134
Nsg135
Nsg136
Nsg137
Nsg138
Nsg139
Nsg140
Nsg141
Nsg142
Nssg143
V
sg144
(dp2264
sg146
V
sg147
(dp2265
sg149
g150
sg151
(dp2266
sg153
Nsg154
Nsg155
(dp2267
sg157
(dp2268
g159
g160
sg161
VWinging Around Europe with Will Rogers
p2269
sg47
I1927
ssg163
g164
sbasg165
(lp2270
g811
asVWon Best Special Effects
p2271
I00
sVWon Best Music, Song
p2272
I00
sVNominated Best Director
p2273
I00
sVWon Best Supporting Actress
p2274
I00
sVNominated Best Sound Effects
p2275
I00
sVWon Best Actor
p2276
I00
sVNominated Best Documentary, Feature
p2277
I00
sVNominated Best Short Subject, Animated
p2278
I00
sVNominated Best Engineering Effects
p2279
I00
sVNominated Best Special Effects
p2280
I00
sVWon Best Art Direction
p2281
I00
sVWon Best Director, Drama
p2282
I00
sVNominated Best Costume Design
p2283
I00
sVWon Best Writing, Original Screenplay
p2284
I00
sVNominated Best Music, Adaptation / Original Song Score
p2285
I00
sVNominated Best Unique and Artistic Picture
p2286
I00
sVWon Best Foreign Language Film
p2287
I00
sVNominated Best Sound
p2288
I00
sVNominated Best Cinematography, Color
p2289
I00
sVWon Best Cinematography, Color
p2290
I00
sVWon Best Short Film, Live Action
p2291
I00
sVWon Best Music, Dramatic or Comedy Picture
p2292
I00
sVNominated Best Music, Dramatic Score
p2293
I00
sVNominated Best Music, Musical or Comedy Score
p2294
I00
sVWon Best Film Editing
p2295
I00
sVNominated Best Music, Musical Picture
p2296
I00
sVNominated Irving G. Thalberg Memorial Award
p2297
I00
sVNominated Best Art Direction
p2298
I00
sVNominated Honorary Award
p2299
I00
sVNominated Best Short Subject, Cartoon
p2300
I00
sg198
VWings (1927)
p2301
sVWon Best Engineering Effects
p2302
I00
sVNominated Best Actor
p2303
I00
sVWon Best Cinematography
p2304
I00
sVNominated Best Actress
p2305
I00
sVNominated Best Writing, Adapted Screenplay
p2306
I00
sVWon Best Sound
p2307
I00
sVNominated Best Short Subject, Live Action
p2308
I00
sVNominated Jean Hersholt Humanitarian Award
p2309
I00
sVWon Best Documentary
p2310
I00
sVWon Special Award
p2311
I00
ssVSunrise
p2312
(dp2313
VNominated Best Sound Effects Editing
p2314
I00
sVWon Best Music, Musical Picture
p2315
I00
sVNominated Best Foreign Language Film
p2316
I00
sVNominated Gordon E. Sawyer Award
p2317
I00
sVWon Best Short Subject, Color
p2318
I00
sVWon Best Short Film, Animated
p2319
I00
sVNominated Best Short Subject, Novelty
p2320
I00
sVNominated Best Makeup
p2321
I00
sVNominated Best Writing
p2322
I00
sVWon Best Picture
p2323
I00
sVNominated Best Costume Design, Color
p2324
I00
sVNominated Award of Commendation
p2325
I00
sVWon Best Actress
p2326
I00
sVNominated Medal of Commendation
p2327
I00
sVWon Best Makeup
p2328
I00
sVNominated Best Director, Drama
p2329
I00
sVWon Best Costume Design
p2330
I00
sVWon Best Writing, Adapted Screenplay
p2331
I00
sVWon Best Writing
p2332
I00
sVNominated Best Short Subject, Comedy
p2333
I00
sVWon Best Costume Design, Color
p2334
I00
sVNominated Best Visual Effects
p2335
I00
sVWon Best Sound Effects Editing
p2336
I00
sVWon Best Costume Design, Black-and-White
p2337
I00
sVNominated Best Supporting Actor
p2338
I00
sVWon Best Art Direction, Color
p2339
I00
sVNominated Best Documentary, Short Subject
p2340
I00
sVNominated Special Achievement Award
p2341
I00
sVWon Medal of Commendation
p2342
I00
sVWon Best Art Direction, Black-and-White
p2343
I00
sVWon Jean Hersholt Humanitarian Award
p2344
I00
sVWon Best Animated Feature Film
p2345
I00
sVWon Best Supporting Actor
p2346
I00
sVWon Best Special Visual Effects
p2347
I00
sVWon Best Short Subject, One-reel
p2348
I00
sVNominated Best Film Editing
p2349
I00
sVWon Best Sound Effects
p2350
I00
sVNominated Best Writing, Original Story
p2351
I00
sVNominated Best Cinematography, Black-and-White
p2352
I00
sg43
(lp2353
S'0018455'
p2354
aS'0017698'
p2355
asVWon Best Short Subject, Two-reel
p2356
I00
sg47
S'1927-1928'
p2357
sVWon Honorary Award
p2358
I00
sVWon Best Short Subject, Comedy
p2359
I00
sVWon Best Director, Comedy
p2360
I00
sVNominated Best Sound Recording
p2361
I00
sVNominated Best Cinematography
p2362
I00
sVWon Best Documentary, Feature
p2363
I00
sVNominated Best Short Film, Live Action
p2364
I00
sVWon Best Director
p2365
I00
sg57
(lp2366
g341
asg59
(lp2367
g1333
asVWon Best Music, Original Score
p2368
I00
sVWon Gordon E. Sawyer Award
p2369
I00
sVWon Best Short Subject, Cartoon
p2370
I00
sVWon Best Short Subject, Live Action
p2371
I00
sVWon Best Music, Dramatic Picture
p2372
I00
sVWon Best Documentary, Short Subject
p2373
I00
sVNominated Best Music, Song
p2374
I00
sVNominated Best Short Subject, One-reel
p2375
I00
sVWon Best Cinematography, Black-and-White
p2376
I00
sVWon Best Writing, Original Story
p2377
I00
sVNominated Best Supporting Actress
p2378
I00
sVNominated Best Special Visual Effects
p2379
I00
sVWon Best Music, Scoring
p2380
I00
sVWon Best Sound Mixing
p2381
I00
sVWon Award of Commendation
p2382
I00
sVNominated Best Music, Scoring
p2383
I00
sVNominated Best Picture
p2384
I00
sVNominated Best Sound Mixing
p2385
I00
sVWon Best Music, Dramatic Score
p2386
I00
sVWon Best Music, Adaptation / Original Song Score
p2387
I00
sVNominated Best Writing, Original Screenplay
p2388
I00
sVWon Best Writing, Title Writing
p2389
I00
sVWon Best Assistant Director
p2390
I00
sVNominated Best Sound Editing
p2391
I00
sVNominated Best Art Direction, Color
p2392
I00
sVNominated Best Assistant Director
p2393
I00
sVWon Best Sound Editing
p2394
I00
sVNominated Best Documentary
p2395
I00
sVWon Irving G. Thalberg Memorial Award
p2396
I00
sVNominated Best Dance Direction
p2397
I00
sVWon Best Unique and Artistic Picture
p2398
I01
sVNominated Best Short Subject, Color
p2399
I00
sVWon Best Short Subject, Novelty
p2400
I00
sVWon Best Music, Musical or Comedy Score
p2401
I00
sVNominated Best Short Subject, Two-reel
p2402
I00
sVNominated Best Art Direction, Black-and-White
p2403
I00
sVNominated Special Award
p2404
I00
sVNominated Best Music, Dramatic or Comedy Picture
p2405
I00
sVWon Best Dance Direction
p2406
I00
sVNominated Best Short Film, Animated
p2407
I00
sVNominated Best Animated Feature Film
p2408
I00
sVWon Best Sound Recording
p2409
I00
sVWon Best Short Subject, Animated
p2410
I00
sVNominated Best Writing, Title Writing
p2411
I00
sVNominated Best Music, Original Score
p2412
I00
sVWon Special Achievement Award
p2413
I00
sVNominated Best Director, Comedy
p2414
I00
sVNominated Best Costume Design, Black-and-White
p2415
I00
sVNominated Best Music, Dramatic Picture
p2416
I00
sVWon Best Visual Effects
p2417
I00
sg112
(lp2418
g114
(g115
g116
NtRp2419
(dp2420
g119
I00
sg120
g121
sg122
g2354
sg123
(dp2421
sg125
(lp2422
sg127
(dp2423
g129
Nsg130
Nsg131
Nsg132
Nsg133
Nsg134
Nsg135
Nsg136
Nsg137
Nsg138
Nsg139
Nsg140
Nsg141
Nsg142
Nssg143
V
sg144
(dp2424
sg146
V
sg147
(dp2425
sg149
g150
sg151
(dp2426
sg153
Nsg154
Nsg155
(dp2427
sg157
(dp2428
g159
g160
sg161
VSunrise
p2429
sg47
I1927
ssg163
g164
sbag114
(g115
g116
NtRp2430
(dp2431
g119
I00
sg120
g121
sg122
g2355
sg123
(dp2432
sg125
(lp2433
sg127
(dp2434
g129
Nsg130
Nsg131
Nsg132
Nsg133
Nsg134
Nsg135
Nsg136
Nsg137
Nsg138
Nsg139
Nsg140
Nsg141
Nsg142
Nssg143
V
sg144
(dp2435
sg146
V
sg147
(dp2436
sg149
g150
sg151
(dp2437
sg153
Nsg154
Nsg155
(dp2438
sg157
(dp2439
g159
g160
sg161
VBreakfast at Sunrise
p2440
sg47
I1927
ssg163
g164
sbasg165
(lp2441
g341
asVWon Best Special Effects
p2442
I00
sVWon Best Music, Song
p2443
I00
sVNominated Best Director
p2444
I00
sVWon Best Supporting Actress
p2445
I00
sVNominated Best Sound Effects
p2446
I00
sVWon Best Actor
p2447
I00
sVNominated Best Documentary, Feature
p2448
I00
sVNominated Best Short Subject, Animated
p2449
I00
sVNominated Best Engineering Effects
p2450
I00
sVNominated Best Special Effects
p2451
I00
sVWon Best Art Direction
p2452
I00
sVWon Best Director, Drama
p2453
I00
sVNominated Best Costume Design
p2454
I00
sVWon Best Writing, Original Screenplay
p2455
I00
sVNominated Best Music, Adaptation / Original Song Score
p2456
I00
sVNominated Best Unique and Artistic Picture
p2457
I01
sVWon Best Foreign Language Film
p2458
I00
sVNominated Best Sound
p2459
I00
sVNominated Best Cinematography, Color
p2460
I00
sVWon Best Cinematography, Color
p2461
I00
sVWon Best Short Film, Live Action
p2462
I00
sVWon Best Music, Dramatic or Comedy Picture
p2463
I00
sVNominated Best Music, Dramatic Score
p2464
I00
sVNominated Best Music, Musical or Comedy Score
p2465
I00
sVWon Best Film Editing
p2466
I00
sVNominated Best Music, Musical Picture
p2467
I00
sVNominated Irving G. Thalberg Memorial Award
p2468
I00
sVNominated Best Art Direction
p2469
I00
sVNominated Honorary Award
p2470
I00
sVNominated Best Short Subject, Cartoon
p2471
I00
sg198
VSunrise (1927)
p2472
sVWon Best Engineering Effects
p2473
I00
sVNominated Best Actor
p2474
I00
sVWon Best Cinematography
p2475
I00
sVNominated Best Actress
p2476
I00
sVNominated Best Writing, Adapted Screenplay
p2477
I00
sVWon Best Sound
p2478
I00
sVNominated Best Short Subject, Live Action
p2479
I00
sVNominated Jean Hersholt Humanitarian Award
p2480
I00
sVWon Best Documentary
p2481
I00
sVWon Special Award
p2482
I00
ss.